(dp1
I1
(dp2
I0
(dp3
S'-'
F0.0023413111342351716
sS'A'
F0.0087513007284079087
sS'C'
F4.1623309053069721e-05
sS'B'
F0
sS'E'
F9.3652445369406872e-05
sS'D'
F9.3652445369406872e-05
sS'G'
F0.0020395421436004159
sS'F'
F0.0010405827263267429
sS'I'
F0.020145681581685743
sS'H'
F0.00026014568158168571
sS'K'
F0.0010405827263267429
sS'M'
F0.00026014568158168571
sS'L'
F0.0065036420395421434
sS'N'
F0.001259105098855359
sS'Q'
F0.0010405827263267429
sS'P'
F9.3652445369406872e-05
sS'S'
F0.0023413111342351716
sS'R'
F0.0010405827263267429
sS'U'
F0
sS'T'
F0.0020395421436004159
sS'W'
F0.001259105098855359
sS'V'
F0.031477627471383982
sS'Y'
F0.0026638917793964621
sS'X'
F0
sS'Z'
F0
ssI1
(dp4
S'-'
F0.0023413111342351716
sS'A'
F0.0093652445369406864
sS'C'
F0
sS'B'
F0
sS'E'
F1.040582726326743e-05
sS'D'
F1.040582726326743e-05
sS'G'
F0.00084287200832466186
sS'F'
F0.015026014568158167
sS'I'
F0.017492195629552551
sS'H'
F1.040582726326743e-05
sS'K'
F1.040582726326743e-05
sS'M'
F0.00026014568158168571
sS'L'
F0.049542143600416241
sS'N'
F1.040582726326743e-05
sS'Q'
F1.040582726326743e-05
sS'P'
F0.00066597294484911553
sS'S'
F0.0017585848074921958
sS'R'
F1.040582726326743e-05
sS'U'
F0
sS'T'
F0.0033714880332986474
sS'W'
F0.00016649323621227888
sS'V'
F0.024984391259105093
sS'Y'
F0.00016649323621227888
sS'X'
F0
sS'Z'
F0
ssI2
(dp5
S'-'
F0.0023413111342351716
sS'A'
F0.0023413111342351716
sS'C'
F1.040582726326743e-05
sS'B'
F0
sS'E'
F0.00084287200832466186
sS'D'
F4.1623309053069721e-05
sS'G'
F9.3652445369406872e-05
sS'F'
F0.0087513007284079087
sS'I'
F0.021071800208116546
sS'H'
F4.1623309053069721e-05
sS'K'
F0.00016649323621227888
sS'M'
F0.00066597294484911553
sS'L'
F0.05545265348595213
sS'N'
F0.00037460978147762749
sS'Q'
F0.00066597294484911553
sS'P'
F0.00066597294484911553
sS'S'
F0.0030072840790842876
sS'R'
F9.3652445369406872e-05
sS'U'
F0
sS'T'
F0.0020395421436004159
sS'W'
F0.00050988553590010398
sS'V'
F0.010655567117585849
sS'Y'
F0.00084287200832466186
sS'X'
F0
sS'Z'
F0
ssI3
(dp6
S'-'
F0.0023413111342351716
sS'A'
F0.01348595213319459
sS'C'
F9.3652445369406872e-05
sS'B'
F0
sS'E'
F4.1623309053069721e-05
sS'D'
F0.00016649323621227888
sS'G'
F0.0030072840790842876
sS'F'
F0.00066597294484911553
sS'I'
F0.0050364203954214358
sS'H'
F1.040582726326743e-05
sS'K'
F0
sS'M'
F0.00066597294484911553
sS'L'
F0.0093652445369406864
sS'N'
F4.1623309053069721e-05
sS'Q'
F4.1623309053069721e-05
sS'P'
F0.043964620187304897
sS'S'
F0.0075858480749219567
sS'R'
F0.00050988553590010398
sS'U'
F0
sS'T'
F0.0070343392299687833
sS'W'
F1.040582726326743e-05
sS'V'
F0.0065036420395421434
sS'Y'
F0.00084287200832466186
sS'X'
F0
sS'Z'
F0
ssI4
(dp7
S'-'
F0.0023413111342351716
sS'A'
F0.023975026014568159
sS'C'
F0.0010405827263267429
sS'B'
F0
sS'E'
F0.00016649323621227888
sS'D'
F0
sS'G'
F0.0017585848074921958
sS'F'
F0.0020395421436004159
sS'I'
F0.015827263267429757
sS'H'
F1.040582726326743e-05
sS'K'
F0
sS'M'
F0.00016649323621227888
sS'L'
F0.016649323621227886
sS'N'
F0
sS'Q'
F0
sS'P'
F0.0030072840790842876
sS'S'
F0.0033714880332986474
sS'R'
F0
sS'U'
F0
sS'T'
F0.0055046826222684697
sS'W'
F1.040582726326743e-05
sS'V'
F0.037460978147762745
sS'Y'
F9.3652445369406872e-05
sS'X'
F0
sS'Z'
F0
ssI5
(dp8
S'-'
F1.040582726326743e-05
sS'A'
F0.0055046826222684697
sS'C'
F0
sS'B'
F0
sS'E'
F0
sS'D'
F0
sS'G'
F0.00037460978147762749
sS'F'
F0.010000000000000002
sS'I'
F0.0093652445369406864
sS'H'
F1.040582726326743e-05
sS'K'
F1.040582726326743e-05
sS'M'
F0.00037460978147762749
sS'L'
F0.099937565036420373
sS'N'
F1.040582726326743e-05
sS'Q'
F0
sS'P'
F0
sS'S'
F0.0014984391259105099
sS'R'
F0
sS'U'
F0
sS'T'
F0.0020395421436004159
sS'W'
F9.3652445369406872e-05
sS'V'
F0.061696149843912591
sS'Y'
F0.00037460978147762749
sS'X'
F0
sS'Z'
F0
ssI6
(dp9
S'-'
F1.040582726326743e-05
sS'A'
F0.0014984391259105099
sS'C'
F0.00037460978147762749
sS'B'
F0
sS'E'
F0.00016649323621227888
sS'D'
F0
sS'G'
F0.00050988553590010398
sS'F'
F0.0050364203954214358
sS'I'
F0.0033714880332986474
sS'H'
F0.00016649323621227888
sS'K'
F0
sS'M'
F0.0020395421436004159
sS'L'
F0.050988553590010401
sS'N'
F1.040582726326743e-05
sS'Q'
F1.040582726326743e-05
sS'P'
F9.3652445369406872e-05
sS'S'
F0.0026638917793964621
sS'R'
F0
sS'U'
F0
sS'T'
F0.001259105098855359
sS'W'
F4.1623309053069721e-05
sS'V'
F0.0017585848074921958
sS'Y'
F0.11472424557752339
sS'X'
F0
sS'Z'
F0
ssI7
(dp10
S'-'
F1.040582726326743e-05
sS'A'
F0.0127471383975026
sS'C'
F0.0026638917793964621
sS'B'
F0
sS'E'
F1.040582726326743e-05
sS'D'
F1.040582726326743e-05
sS'G'
F0.016649323621227886
sS'F'
F0.00026014568158168571
sS'I'
F0.0093652445369406864
sS'H'
F0
sS'K'
F1.040582726326743e-05
sS'M'
F0.00016649323621227888
sS'L'
F0.019240374609781476
sS'N'
F0
sS'Q'
F0
sS'P'
F0
sS'S'
F0.030343392299687827
sS'R'
F0
sS'U'
F0
sS'T'
F0.0037565036420395418
sS'W'
F0.0014984391259105099
sS'V'
F0.020145681581685743
sS'Y'
F0.00016649323621227888
sS'X'
F0
sS'Z'
F0
ssI8
(dp11
S'-'
F1.040582726326743e-05
sS'A'
F0.01202913631633715
sS'C'
F4.1623309053069721e-05
sS'B'
F0
sS'E'
F0
sS'D'
F1.040582726326743e-05
sS'G'
F0.0017585848074921958
sS'F'
F0.0081581685744016638
sS'I'
F0.014245577523413112
sS'H'
F0
sS'K'
F0
sS'M'
F0.00016649323621227888
sS'L'
F0.082424557752341324
sS'N'
F1.040582726326743e-05
sS'Q'
F0
sS'P'
F4.1623309053069721e-05
sS'S'
F0.0010405827263267429
sS'R'
F0
sS'U'
F0
sS'T'
F0.0041623309053069714
sS'W'
F1.040582726326743e-05
sS'V'
F0.046711758584807493
sS'Y'
F0
sS'X'
F0
sS'Z'
F0
ssI9
(dp12
S'-'
F0.99355879292403759
sS'A'
F0
sS'C'
F0
sS'B'
F0
sS'E'
F0
sS'D'
F0
sS'G'
F0
sS'F'
F0
sS'I'
F0
sS'H'
F0
sS'K'
F0
sS'M'
F1.040582726326743e-05
sS'L'
F0
sS'N'
F0
sS'Q'
F0
sS'P'
F0
sS'S'
F0
sS'R'
F0
sS'U'
F0
sS'T'
F0
sS'W'
F0
sS'V'
F0
sS'Y'
F0
sS'X'
F0
sS'Z'
F0
ssI10
(dp13
S'-'
F1.040582726326743e-05
sS'A'
F0.001259105098855359
sS'C'
F4.1623309053069721e-05
sS'B'
F0
sS'E'
F0.0041623309053069714
sS'D'
F1.040582726326743e-05
sS'G'
F0.00026014568158168571
sS'F'
F0.00037460978147762749
sS'I'
F0.080582726326742973
sS'H'
F0
sS'K'
F0
sS'M'
F0.00050988553590010398
sS'L'
F0.03622268470343392
sS'N'
F1.040582726326743e-05
sS'Q'
F4.1623309053069721e-05
sS'P'
F1.040582726326743e-05
sS'S'
F0.00066597294484911553
sS'R'
F0
sS'U'
F0
sS'T'
F0.0030072840790842876
sS'W'
F0
sS'V'
F0.068272632674297604
sS'Y'
F0
sS'X'
F0
sS'Z'
F0
ssI11
(dp14
S'-'
F1.040582726326743e-05
sS'A'
F0.0033714880332986474
sS'C'
F0.0127471383975026
sS'B'
F0
sS'E'
F1.040582726326743e-05
sS'D'
F1.040582726326743e-05
sS'G'
F0.0041623309053069714
sS'F'
F0.14002081165452654
sS'I'
F0.0127471383975026
sS'H'
F1.040582726326743e-05
sS'K'
F0
sS'M'
F0.00084287200832466186
sS'L'
F0.0041623309053069714
sS'N'
F4.1623309053069721e-05
sS'Q'
F0
sS'P'
F0
sS'S'
F0.0059937565036420398
sS'R'
F1.040582726326743e-05
sS'U'
F0
sS'T'
F0.0010405827263267429
sS'W'
F4.1623309053069721e-05
sS'V'
F0.0017585848074921958
sS'Y'
F1.040582726326743e-05
sS'X'
F0
sS'Z'
F0
ssI12
(dp15
S'-'
F1.040582726326743e-05
sS'A'
F0.010000000000000002
sS'C'
F0.00050988553590010398
sS'B'
F0
sS'E'
F0
sS'D'
F1.040582726326743e-05
sS'G'
F0.00084287200832466186
sS'F'
F0.0017585848074921958
sS'I'
F0.017492195629552551
sS'H'
F0
sS'K'
F0
sS'M'
F1.040582726326743e-05
sS'L'
F0.097908428720083263
sS'N'
F1.040582726326743e-05
sS'Q'
F0
sS'P'
F4.1623309053069721e-05
sS'S'
F0.00066597294484911553
sS'R'
F1.040582726326743e-05
sS'U'
F0
sS'T'
F0.0017585848074921958
sS'W'
F0
sS'V'
F0.073423517169614996
sS'Y'
F0
sS'X'
F0
sS'Z'
F0
ssI13
(dp16
S'-'
F1.040582726326743e-05
sS'A'
F0.0055046826222684697
sS'C'
F0.00037460978147762749
sS'B'
F0
sS'E'
F0
sS'D'
F0
sS'G'
F0.00050988553590010398
sS'F'
F0.0065036420395421434
sS'I'
F0.01133194588969823
sS'H'
F0
sS'K'
F0
sS'M'
F0.00037460978147762749
sS'L'
F0.084287200832466186
sS'N'
F1.040582726326743e-05
sS'Q'
F0
sS'P'
F0.00050988553590010398
sS'S'
F1.040582726326743e-05
sS'R'
F0
sS'U'
F0
sS'T'
F0.0023413111342351716
sS'W'
F4.1623309053069721e-05
sS'V'
F0.088074921956295515
sS'Y'
F1.040582726326743e-05
sS'X'
F0
sS'Z'
F0
ssI14
(dp17
S'-'
F1.040582726326743e-05
sS'A'
F0.01133194588969823
sS'C'
F0.00016649323621227888
sS'B'
F0
sS'E'
F0
sS'D'
F9.3652445369406872e-05
sS'G'
F0.31504682622268471
sS'F'
F0
sS'I'
F0.0037565036420395418
sS'H'
F0
sS'K'
F1.040582726326743e-05
sS'M'
F0
sS'L'
F1.040582726326743e-05
sS'N'
F0
sS'Q'
F1.040582726326743e-05
sS'P'
F4.1623309053069721e-05
sS'S'
F0.0127471383975026
sS'R'
F0
sS'U'
F0
sS'T'
F0.0093652445369406864
sS'W'
F0
sS'V'
F0.00037460978147762749
sS'Y'
F0
sS'X'
F0
sS'Z'
F0
ssI15
(dp18
S'-'
F1.040582726326743e-05
sS'A'
F0.001259105098855359
sS'C'
F9.3652445369406872e-05
sS'B'
F0
sS'E'
F0
sS'D'
F0
sS'G'
F0.00016649323621227888
sS'F'
F0.0041623309053069714
sS'I'
F0.030343392299687827
sS'H'
F0
sS'K'
F0
sS'M'
F0.0010405827263267429
sS'L'
F0.12591050988553593
sS'N'
F0.00084287200832466186
sS'Q'
F0
sS'P'
F1.040582726326743e-05
sS'S'
F0.00026014568158168571
sS'R'
F0
sS'U'
F0
sS'T'
F0.0017585848074921958
sS'W'
F0
sS'V'
F0.049542143600416241
sS'Y'
F0
sS'X'
F0
sS'Z'
F0
ssI16
(dp19
S'-'
F1.040582726326743e-05
sS'A'
F0.0075858480749219567
sS'C'
F0.00037460978147762749
sS'B'
F0
sS'E'
F0
sS'D'
F0
sS'G'
F0.001259105098855359
sS'F'
F0.010655567117585849
sS'I'
F0.0059937565036420398
sS'H'
F0
sS'K'
F0
sS'M'
F9.3652445369406872e-05
sS'L'
F0.11254942767950053
sS'N'
F0
sS'Q'
F1.040582726326743e-05
sS'P'
F0.0075858480749219567
sS'S'
F0.00026014568158168571
sS'R'
F0
sS'U'
F0
sS'T'
F0.0014984391259105099
sS'W'
F1.040582726326743e-05
sS'V'
F0.031477627471383982
sS'Y'
F1.040582726326743e-05
sS'X'
F0
sS'Z'
F0
ssI17
(dp20
S'-'
F1.040582726326743e-05
sS'A'
F0.0075858480749219567
sS'C'
F4.1623309053069721e-05
sS'B'
F0
sS'E'
F0.0033714880332986474
sS'D'
F1.040582726326743e-05
sS'G'
F0.42881373569198744
sS'F'
F1.040582726326743e-05
sS'I'
F4.1623309053069721e-05
sS'H'
F0
sS'K'
F0
sS'M'
F1.040582726326743e-05
sS'L'
F0.0041623309053069714
sS'N'
F1.040582726326743e-05
sS'Q'
F1.040582726326743e-05
sS'P'
F0
sS'S'
F0.0023413111342351716
sS'R'
F0
sS'U'
F0
sS'T'
F0.0010405827263267429
sS'W'
F1.040582726326743e-05
sS'V'
F0.00026014568158168571
sS'Y'
F1.040582726326743e-05
sS'X'
F0
sS'Z'
F0
ssI18
(dp21
S'-'
F1.040582726326743e-05
sS'A'
F0
sS'C'
F0
sS'B'
F0
sS'E'
F0
sS'D'
F0
sS'G'
F1.040582726326743e-05
sS'F'
F0
sS'I'
F0
sS'H'
F0
sS'K'
F0
sS'M'
F0
sS'L'
F0
sS'N'
F0.9553485952133195
sS'Q'
F0
sS'P'
F0
sS'S'
F0.00026014568158168571
sS'R'
F0
sS'U'
F0
sS'T'
F0
sS'W'
F0
sS'V'
F0
sS'Y'
F0
sS'X'
F0
sS'Z'
F0
ssI19
(dp22
S'-'
F1.040582726326743e-05
sS'A'
F0.020145681581685743
sS'C'
F0.0010405827263267429
sS'B'
F0
sS'E'
F0
sS'D'
F0
sS'G'
F0.03872008324661811
sS'F'
F0.00037460978147762749
sS'I'
F0.01133194588969823
sS'H'
F0
sS'K'
F0
sS'M'
F0.00016649323621227888
sS'L'
F0.042622268470343394
sS'N'
F0
sS'Q'
F0
sS'P'
F0
sS'S'
F0.015827263267429757
sS'R'
F0
sS'U'
F0
sS'T'
F0.0037565036420395418
sS'W'
F0
sS'V'
F0.0087513007284079087
sS'Y'
F0
sS'X'
F0
sS'Z'
F0
ssI20
(dp23
S'-'
F1.040582726326743e-05
sS'A'
F0.0030072840790842876
sS'C'
F0.00037460978147762749
sS'B'
F0
sS'E'
F0
sS'D'
F0
sS'G'
F1.040582726326743e-05
sS'F'
F0.01348595213319459
sS'I'
F0.0030072840790842876
sS'H'
F1.040582726326743e-05
sS'K'
F0
sS'M'
F0.0017585848074921958
sS'L'
F0.27309053069719041
sS'N'
F0
sS'Q'
F0
sS'P'
F4.1623309053069721e-05
sS'S'
F0.00016649323621227888
sS'R'
F0
sS'U'
F0
sS'T'
F0.0014984391259105099
sS'W'
F4.1623309053069721e-05
sS'V'
F0.010000000000000002
sS'Y'
F0.00026014568158168571
sS'X'
F0
sS'Z'
F0
ssI21
(dp24
S'-'
F1.040582726326743e-05
sS'A'
F0.016649323621227886
sS'C'
F0
sS'B'
F0
sS'E'
F0
sS'D'
F0
sS'G'
F1.040582726326743e-05
sS'F'
F9.3652445369406872e-05
sS'I'
F0.010000000000000002
sS'H'
F0
sS'K'
F0
sS'M'
F4.1623309053069721e-05
sS'L'
F0.0037565036420395418
sS'N'
F0
sS'Q'
F0
sS'P'
F0
sS'S'
F0.00084287200832466186
sS'R'
F1.040582726326743e-05
sS'U'
F0
sS'T'
F0.0023413111342351716
sS'W'
F0
sS'V'
F0.36388137356919881
sS'Y'
F1.040582726326743e-05
sS'X'
F0
sS'Z'
F0
ssI22
(dp25
S'-'
F1.040582726326743e-05
sS'A'
F0.0045889698231009373
sS'C'
F0.0033714880332986474
sS'B'
F0
sS'E'
F1.040582726326743e-05
sS'D'
F0
sS'G'
F0.00026014568158168571
sS'F'
F0.00026014568158168571
sS'I'
F0.068272632674297604
sS'H'
F0
sS'K'
F0
sS'M'
F0.0075858480749219567
sS'L'
F0.11039542143600417
sS'N'
F0
sS'Q'
F4.1623309053069721e-05
sS'P'
F0
sS'S'
F4.1623309053069721e-05
sS'R'
F0
sS'U'
F0
sS'T'
F0.00026014568158168571
sS'W'
F0
sS'V'
F0.015827263267429757
sS'Y'
F0
sS'X'
F0
sS'Z'
F0
ssI23
(dp26
S'-'
F1.040582726326743e-05
sS'A'
F0.010655567117585849
sS'C'
F0.001259105098855359
sS'B'
F0
sS'E'
F0
sS'D'
F0
sS'G'
F0.00066597294484911553
sS'F'
F0.0033714880332986474
sS'I'
F0.0033714880332986474
sS'H'
F0.00016649323621227888
sS'K'
F9.3652445369406872e-05
sS'M'
F0.00084287200832466186
sS'L'
F0.058532778355879299
sS'N'
F0
sS'Q'
F0
sS'P'
F0
sS'S'
F0.00016649323621227888
sS'R'
F0.00037460978147762749
sS'U'
F0
sS'T'
F0.00066597294484911553
sS'W'
F0.031477627471383982
sS'V'
F0.01133194588969823
sS'Y'
F0.0065036420395421434
sS'X'
F0
sS'Z'
F0
ssI24
(dp27
S'-'
F1.040582726326743e-05
sS'A'
F0.03622268470343392
sS'C'
F4.1623309053069721e-05
sS'B'
F0
sS'E'
F0
sS'D'
F0
sS'G'
F0.00050988553590010398
sS'F'
F0.00016649323621227888
sS'I'
F0.018355879292403749
sS'H'
F0
sS'K'
F0
sS'M'
F0.00084287200832466186
sS'L'
F0.010000000000000002
sS'N'
F1.040582726326743e-05
sS'Q'
F1.040582726326743e-05
sS'P'
F1.040582726326743e-05
sS'S'
F0.0059937565036420398
sS'R'
F4.1623309053069721e-05
sS'U'
F0
sS'T'
F0.0037565036420395418
sS'W'
F1.040582726326743e-05
sS'V'
F0.11691987513007283
sS'Y'
F0
sS'X'
F0
sS'Z'
F0
ssI25
(dp28
S'-'
F1.040582726326743e-05
sS'A'
F0.0010405827263267429
sS'C'
F1.040582726326743e-05
sS'B'
F0
sS'E'
F0
sS'D'
F1.040582726326743e-05
sS'G'
F1.040582726326743e-05
sS'F'
F0.024984391259105093
sS'I'
F0.042622268470343394
sS'H'
F4.1623309053069721e-05
sS'K'
F0
sS'M'
F4.1623309053069721e-05
sS'L'
F0.049542143600416241
sS'N'
F0.0050364203954214358
sS'Q'
F0
sS'P'
F0
sS'S'
F0.00026014568158168571
sS'R'
F9.3652445369406872e-05
sS'U'
F0
sS'T'
F0.0020395421436004159
sS'W'
F0
sS'V'
F0.035005202913631635
sS'Y'
F0.00066597294484911553
sS'X'
F0
sS'Z'
F0
ssI26
(dp29
S'-'
F0.00050988553590010398
sS'A'
F0.01202913631633715
sS'C'
F0.01133194588969823
sS'B'
F0
sS'E'
F1.040582726326743e-05
sS'D'
F0
sS'G'
F0.010000000000000002
sS'F'
F0.0033714880332986474
sS'I'
F0.0050364203954214358
sS'H'
F0.00026014568158168571
sS'K'
F0.00066597294484911553
sS'M'
F0.00037460978147762749
sS'L'
F0.031477627471383982
sS'N'
F0
sS'Q'
F4.1623309053069721e-05
sS'P'
F1.040582726326743e-05
sS'S'
F0.0065036420395421434
sS'R'
F0.00016649323621227888
sS'U'
F0
sS'T'
F0.00066597294484911553
sS'W'
F0.0010405827263267429
sS'V'
F0.0075858480749219567
sS'Y'
F0.0017585848074921958
sS'X'
F0
sS'Z'
F0
sssI2
(dp30
I0
(dp31
S'-'
F1.040582726326743e-05
sS'A'
F0.0030072840790842876
sS'C'
F1.040582726326743e-05
sS'B'
F0
sS'E'
F0.00084287200832466186
sS'D'
F0.022018730489073879
sS'G'
F0.0010405827263267429
sS'F'
F0.00066597294484911553
sS'I'
F0.00037460978147762749
sS'H'
F0.0014984391259105099
sS'K'
F1.040582726326743e-05
sS'M'
F4.1623309053069721e-05
sS'L'
F0.00050988553590010398
sS'N'
F0.13053069719042662
sS'Q'
F4.1623309053069721e-05
sS'P'
F0
sS'S'
F0.0033714880332986474
sS'R'
F0.00050988553590010398
sS'U'
F0
sS'T'
F0.0045889698231009373
sS'W'
F1.040582726326743e-05
sS'V'
F0.00037460978147762749
sS'Y'
F0.0055046826222684697
sS'X'
F0
sS'Z'
F0
ssI1
(dp32
S'-'
F1.040582726326743e-05
sS'A'
F0.00026014568158168571
sS'C'
F0.00084287200832466186
sS'B'
F0
sS'E'
F0
sS'D'
F1.040582726326743e-05
sS'G'
F0
sS'F'
F0.0093652445369406864
sS'I'
F0.052455775234131113
sS'H'
F4.1623309053069721e-05
sS'K'
F0.00016649323621227888
sS'M'
F0.001259105098855359
sS'L'
F0.022986472424557751
sS'N'
F4.1623309053069721e-05
sS'Q'
F0.00050988553590010398
sS'P'
F1.040582726326743e-05
sS'S'
F0.00016649323621227888
sS'R'
F0.00037460978147762749
sS'U'
F0
sS'T'
F0.0017585848074921958
sS'W'
F9.3652445369406872e-05
sS'V'
F0.019240374609781476
sS'Y'
F0.026014568158168574
sS'X'
F0
sS'Z'
F0
ssI2
(dp33
S'-'
F1.040582726326743e-05
sS'A'
F4.1623309053069721e-05
sS'C'
F0.00026014568158168571
sS'B'
F0
sS'E'
F0
sS'D'
F0
sS'G'
F0
sS'F'
F0.12137356919875131
sS'I'
F0.0075858480749219567
sS'H'
F0.00016649323621227888
sS'K'
F0
sS'M'
F9.3652445369406872e-05
sS'L'
F0.041300728407908424
sS'N'
F0
sS'Q'
F0
sS'P'
F0
sS'S'
F0.00037460978147762749
sS'R'
F0
sS'U'
F0
sS'T'
F0
sS'W'
F0.00037460978147762749
sS'V'
F4.1623309053069721e-05
sS'Y'
F0.07168574401664933
sS'X'
F0
sS'Z'
F0
ssI3
(dp34
S'-'
F1.040582726326743e-05
sS'A'
F4.1623309053069721e-05
sS'C'
F4.1623309053069721e-05
sS'B'
F0
sS'E'
F0
sS'D'
F0
sS'G'
F0
sS'F'
F0.0010405827263267429
sS'I'
F0.10198751300728406
sS'H'
F0
sS'K'
F1.040582726326743e-05
sS'M'
F0.0059937565036420398
sS'L'
F0.15488033298647244
sS'N'
F0
sS'Q'
F0
sS'P'
F1.040582726326743e-05
sS'S'
F9.3652445369406872e-05
sS'R'
F1.040582726326743e-05
sS'U'
F0
sS'T'
F0.00050988553590010398
sS'W'
F0
sS'V'
F0.01133194588969823
sS'Y'
F0.00016649323621227888
sS'X'
F0
sS'Z'
F0
ssI4
(dp35
S'-'
F1.040582726326743e-05
sS'A'
F0.0087513007284079087
sS'C'
F0.0037565036420395418
sS'B'
F0
sS'E'
F0
sS'D'
F0
sS'G'
F0.0045889698231009373
sS'F'
F0.0065036420395421434
sS'I'
F0.0050364203954214358
sS'H'
F4.1623309053069721e-05
sS'K'
F0.00050988553590010398
sS'M'
F0.00084287200832466186
sS'L'
F0.09391259105098855
sS'N'
F0
sS'Q'
F4.1623309053069721e-05
sS'P'
F0
sS'S'
F0.00037460978147762749
sS'R'
F1.040582726326743e-05
sS'U'
F0
sS'T'
F0.0059937565036420398
sS'W'
F0
sS'V'
F0.022986472424557751
sS'Y'
F0
sS'X'
F0
sS'Z'
F0
ssI5
(dp36
S'-'
F1.040582726326743e-05
sS'A'
F0.0010405827263267429
sS'C'
F0.00026014568158168571
sS'B'
F0
sS'E'
F1.040582726326743e-05
sS'D'
F0.00016649323621227888
sS'G'
F0.00066597294484911553
sS'F'
F4.1623309053069721e-05
sS'I'
F9.3652445369406872e-05
sS'H'
F0.0065036420395421434
sS'K'
F0
sS'M'
F1.040582726326743e-05
sS'L'
F4.1623309053069721e-05
sS'N'
F0.21878251821019767
sS'Q'
F0.00026014568158168571
sS'P'
F0
sS'S'
F0.086170655567117574
sS'R'
F0
sS'U'
F0
sS'T'
F0.00026014568158168571
sS'W'
F1.040582726326743e-05
sS'V'
F1.040582726326743e-05
sS'Y'
F0
sS'X'
F0
sS'Z'
F0
ssI6
(dp37
S'-'
F1.040582726326743e-05
sS'A'
F0
sS'C'
F0
sS'B'
F0
sS'E'
F0
sS'D'
F0
sS'G'
F1.040582726326743e-05
sS'F'
F0
sS'I'
F0.00026014568158168571
sS'H'
F0
sS'K'
F0
sS'M'
F0.001259105098855359
sS'L'
F0.84521331945889688
sS'N'
F0
sS'Q'
F0
sS'P'
F0
sS'S'
F0
sS'R'
F0
sS'U'
F0
sS'T'
F9.3652445369406872e-05
sS'W'
F0
sS'V'
F0.00016649323621227888
sS'Y'
F0
sS'X'
F0
sS'Z'
F0
ssI7
(dp38
S'-'
F1.040582726326743e-05
sS'A'
F0.52212278876170648
sS'C'
F0.0010405827263267429
sS'B'
F0
sS'E'
F0
sS'D'
F0
sS'G'
F0.00037460978147762749
sS'F'
F4.1623309053069721e-05
sS'I'
F1.040582726326743e-05
sS'H'
F1.040582726326743e-05
sS'K'
F0
sS'M'
F0
sS'L'
F0.00066597294484911553
sS'N'
F0
sS'Q'
F0
sS'P'
F1.040582726326743e-05
sS'S'
F0.0070343392299687833
sS'R'
F0
sS'U'
F0
sS'T'
F0.0020395421436004159
sS'W'
F0
sS'V'
F0.0026638917793964621
sS'Y'
F0
sS'X'
F0
sS'Z'
F0
ssI8
(dp39
S'-'
F1.040582726326743e-05
sS'A'
F0.0127471383975026
sS'C'
F0.0041623309053069714
sS'B'
F0
sS'E'
F0
sS'D'
F0
sS'G'
F0.00026014568158168571
sS'F'
F0.0041623309053069714
sS'I'
F0.022986472424557751
sS'H'
F0
sS'K'
F1.040582726326743e-05
sS'M'
F9.3652445369406872e-05
sS'L'
F0.056982310093652448
sS'N'
F0
sS'Q'
F0
sS'P'
F0
sS'S'
F0.00026014568158168571
sS'R'
F0
sS'U'
F0
sS'T'
F0.00066597294484911553
sS'W'
F0
sS'V'
F0.082424557752341324
sS'Y'
F4.1623309053069721e-05
sS'X'
F0
sS'Z'
F0
ssI9
(dp40
S'-'
F1.040582726326743e-05
sS'A'
F0.27309053069719041
sS'C'
F0.00026014568158168571
sS'B'
F0
sS'E'
F0
sS'D'
F0
sS'G'
F0.00084287200832466186
sS'F'
F1.040582726326743e-05
sS'I'
F0
sS'H'
F0
sS'K'
F0
sS'M'
F1.040582726326743e-05
sS'L'
F9.3652445369406872e-05
sS'N'
F1.040582726326743e-05
sS'Q'
F0
sS'P'
F0
sS'S'
F0.082424557752341324
sS'R'
F0
sS'U'
F0
sS'T'
F0.0075858480749219567
sS'W'
F4.1623309053069721e-05
sS'V'
F0.00084287200832466186
sS'Y'
F0
sS'X'
F0
sS'Z'
F0
ssI10
(dp41
S'-'
F1.040582726326743e-05
sS'A'
F1.040582726326743e-05
sS'C'
F0
sS'B'
F0
sS'E'
F4.1623309053069721e-05
sS'D'
F0.73074921956295524
sS'G'
F0.00016649323621227888
sS'F'
F0
sS'I'
F0
sS'H'
F0.00016649323621227888
sS'K'
F0
sS'M'
F0
sS'L'
F1.040582726326743e-05
sS'N'
F0.00026014568158168571
sS'Q'
F1.040582726326743e-05
sS'P'
F0
sS'S'
F1.040582726326743e-05
sS'R'
F0.0055046826222684697
sS'U'
F0
sS'T'
F1.040582726326743e-05
sS'W'
F0
sS'V'
F0
sS'Y'
F1.040582726326743e-05
sS'X'
F0
sS'Z'
F0
ssI11
(dp42
S'-'
F1.040582726326743e-05
sS'A'
F0.0010405827263267429
sS'C'
F4.1623309053069721e-05
sS'B'
F0
sS'E'
F0.00026014568158168571
sS'D'
F0
sS'G'
F0.00016649323621227888
sS'F'
F0.029229968782518208
sS'I'
F0.0093652445369406864
sS'H'
F0
sS'K'
F0
sS'M'
F0.001259105098855359
sS'L'
F0.3007284079084287
sS'N'
F1.040582726326743e-05
sS'Q'
F0
sS'P'
F0
sS'S'
F4.1623309053069721e-05
sS'R'
F0
sS'U'
F0
sS'T'
F0.00016649323621227888
sS'W'
F0
sS'V'
F0.0030072840790842876
sS'Y'
F0
sS'X'
F0
sS'Z'
F0
ssI12
(dp43
S'-'
F1.040582726326743e-05
sS'A'
F0.0033714880332986474
sS'C'
F0.0030072840790842876
sS'B'
F0
sS'E'
F1.040582726326743e-05
sS'D'
F0
sS'G'
F0.0020395421436004159
sS'F'
F0.0033714880332986474
sS'I'
F0.0045889698231009373
sS'H'
F0
sS'K'
F0
sS'M'
F0.00066597294484911553
sS'L'
F0.3446826222684703
sS'N'
F0
sS'Q'
F1.040582726326743e-05
sS'P'
F0
sS'S'
F0.0010405827263267429
sS'R'
F1.040582726326743e-05
sS'U'
F0
sS'T'
F4.1623309053069721e-05
sS'W'
F1.040582726326743e-05
sS'V'
F0.0020395421436004159
sS'Y'
F1.040582726326743e-05
sS'X'
F0
sS'Z'
F0
ssI13
(dp44
S'-'
F1.040582726326743e-05
sS'A'
F0.0033714880332986474
sS'C'
F0.00037460978147762749
sS'B'
F0
sS'E'
F4.1623309053069721e-05
sS'D'
F0
sS'G'
F0.0010405827263267429
sS'F'
F0.035005202913631635
sS'I'
F0.0033714880332986474
sS'H'
F9.3652445369406872e-05
sS'K'
F0
sS'M'
F0.0041623309053069714
sS'L'
F0.052455775234131113
sS'N'
F1.040582726326743e-05
sS'Q'
F9.3652445369406872e-05
sS'P'
F1.040582726326743e-05
sS'S'
F0.00016649323621227888
sS'R'
F9.3652445369406872e-05
sS'U'
F0
sS'T'
F0.00084287200832466186
sS'W'
F0
sS'V'
F0.043964620187304897
sS'Y'
F0.0030072840790842876
sS'X'
F0
sS'Z'
F0
ssI14
(dp45
S'-'
F1.040582726326743e-05
sS'A'
F0.022018730489073879
sS'C'
F0.0020395421436004159
sS'B'
F0
sS'E'
F0
sS'D'
F0
sS'G'
F0.027065556711758587
sS'F'
F0.00016649323621227888
sS'I'
F0.0041623309053069714
sS'H'
F9.3652445369406872e-05
sS'K'
F1.040582726326743e-05
sS'M'
F0.00037460978147762749
sS'L'
F0.045327783558792918
sS'N'
F4.1623309053069721e-05
sS'Q'
F0.00084287200832466186
sS'P'
F0
sS'S'
F0.0075858480749219567
sS'R'
F0
sS'U'
F0
sS'T'
F0.0070343392299687833
sS'W'
F1.040582726326743e-05
sS'V'
F0.01133194588969823
sS'Y'
F0
sS'X'
F0
sS'Z'
F0
ssI15
(dp46
S'-'
F1.040582726326743e-05
sS'A'
F0.0081581685744016638
sS'C'
F0.0037565036420395418
sS'B'
F0
sS'E'
F0
sS'D'
F0
sS'G'
F0.0010405827263267429
sS'F'
F0.0045889698231009373
sS'I'
F0.0081581685744016638
sS'H'
F1.040582726326743e-05
sS'K'
F0
sS'M'
F0.00016649323621227888
sS'L'
F0.11254942767950053
sS'N'
F0
sS'Q'
F0
sS'P'
F0
sS'S'
F0.0037565036420395418
sS'R'
F0
sS'U'
F0
sS'T'
F0.0014984391259105099
sS'W'
F0.0014984391259105099
sS'V'
F0.027065556711758587
sS'Y'
F0
sS'X'
F0
sS'Z'
F0
ssI16
(dp47
S'-'
F0.44158168574401668
sS'A'
F0.00037460978147762749
sS'C'
F0.00016649323621227888
sS'B'
F0
sS'E'
F0
sS'D'
F0
sS'G'
F4.1623309053069721e-05
sS'F'
F0.0030072840790842876
sS'I'
F0.00066597294484911553
sS'H'
F0
sS'K'
F0
sS'M'
F1.040582726326743e-05
sS'L'
F0.016649323621227886
sS'N'
F0
sS'Q'
F0
sS'P'
F0
sS'S'
F1.040582726326743e-05
sS'R'
F0
sS'U'
F0
sS'T'
F0.0014984391259105099
sS'W'
F0
sS'V'
F0.0010405827263267429
sS'Y'
F9.3652445369406872e-05
sS'X'
F0
sS'Z'
F0
ssI17
(dp48
S'-'
F1.040582726326743e-05
sS'A'
F0.0055046826222684697
sS'C'
F0.017492195629552551
sS'B'
F0
sS'E'
F1.040582726326743e-05
sS'D'
F0.00016649323621227888
sS'G'
F0.0041623309053069714
sS'F'
F0.0030072840790842876
sS'I'
F0.0023413111342351716
sS'H'
F0
sS'K'
F0
sS'M'
F1.040582726326743e-05
sS'L'
F0.0023413111342351716
sS'N'
F0.00026014568158168571
sS'Q'
F4.1623309053069721e-05
sS'P'
F9.3652445369406872e-05
sS'S'
F0.015827263267429757
sS'R'
F1.040582726326743e-05
sS'U'
F0
sS'T'
F0.029229968782518208
sS'W'
F9.3652445369406872e-05
sS'V'
F0.037460978147762745
sS'Y'
F0.00037460978147762749
sS'X'
F0
sS'Z'
F0
ssI18
(dp49
S'-'
F1.040582726326743e-05
sS'A'
F0.0010405827263267429
sS'C'
F0.00016649323621227888
sS'B'
F0
sS'E'
F0
sS'D'
F0
sS'G'
F4.1623309053069721e-05
sS'F'
F0.0023413111342351716
sS'I'
F0.0087513007284079087
sS'H'
F9.3652445369406872e-05
sS'K'
F9.3652445369406872e-05
sS'M'
F0.029229968782518208
sS'L'
F0.16000000000000003
sS'N'
F0.00066597294484911553
sS'Q'
F0.00066597294484911553
sS'P'
F9.3652445369406872e-05
sS'S'
F0.0010405827263267429
sS'R'
F4.1623309053069721e-05
sS'U'
F0
sS'T'
F0.00037460978147762749
sS'W'
F0
sS'V'
F0.0037565036420395418
sS'Y'
F0.0010405827263267429
sS'X'
F0
sS'Z'
F0
ssI19
(dp50
S'-'
F1.040582726326743e-05
sS'A'
F0.0014984391259105099
sS'C'
F0
sS'B'
F0
sS'E'
F0
sS'D'
F0
sS'G'
F0.00037460978147762749
sS'F'
F0.00050988553590010398
sS'I'
F0.0010405827263267429
sS'H'
F0
sS'K'
F1.040582726326743e-05
sS'M'
F0.00066597294484911553
sS'L'
F0.0045889698231009373
sS'N'
F0.00026014568158168571
sS'Q'
F0
sS'P'
F0.45889698231009357
sS'S'
F0.00037460978147762749
sS'R'
F0
sS'U'
F0
sS'T'
F0.00026014568158168571
sS'W'
F0
sS'V'
F0.0033714880332986474
sS'Y'
F0
sS'X'
F0
sS'Z'
F0
ssI20
(dp51
S'-'
F1.040582726326743e-05
sS'A'
F0.0020395421436004159
sS'C'
F1.040582726326743e-05
sS'B'
F0
sS'E'
F4.1623309053069721e-05
sS'D'
F0
sS'G'
F0.00016649323621227888
sS'F'
F0.13053069719042662
sS'I'
F0.0050364203954214358
sS'H'
F0
sS'K'
F0
sS'M'
F0.00026014568158168571
sS'L'
F0.068272632674297604
sS'N'
F0
sS'Q'
F1.040582726326743e-05
sS'P'
F0.00026014568158168571
sS'S'
F9.3652445369406872e-05
sS'R'
F1.040582726326743e-05
sS'U'
F0
sS'T'
F0.0020395421436004159
sS'W'
F0.00037460978147762749
sS'V'
F0.010655567117585849
sS'Y'
F0.00037460978147762749
sS'X'
F0
sS'Z'
F0
ssI21
(dp52
S'-'
F1.040582726326743e-05
sS'A'
F0.0023413111342351716
sS'C'
F1.040582726326743e-05
sS'B'
F0
sS'E'
F0.0026638917793964621
sS'D'
F0.0017585848074921958
sS'G'
F0.00026014568158168571
sS'F'
F0.0020395421436004159
sS'I'
F0.0014984391259105099
sS'H'
F0.00050988553590010398
sS'K'
F0.0020395421436004159
sS'M'
F0.00016649323621227888
sS'L'
F0.0070343392299687833
sS'N'
F0.0041623309053069714
sS'Q'
F0.0010405827263267429
sS'P'
F0.001259105098855359
sS'S'
F0.0087513007284079087
sS'R'
F0.0045889698231009373
sS'U'
F0
sS'T'
F0.0055046826222684697
sS'W'
F0.01202913631633715
sS'V'
F0.0065036420395421434
sS'Y'
F0.00084287200832466186
sS'X'
F0
sS'Z'
F0
ssI22
(dp53
S'-'
F1.040582726326743e-05
sS'A'
F0.037460978147762745
sS'C'
F4.1623309053069721e-05
sS'B'
F0
sS'E'
F0
sS'D'
F4.1623309053069721e-05
sS'G'
F0.0017585848074921958
sS'F'
F0.0023413111342351716
sS'I'
F0.032632674297606655
sS'H'
F0
sS'K'
F0
sS'M'
F0.0050364203954214358
sS'L'
F0.022986472424557751
sS'N'
F0.00084287200832466186
sS'Q'
F0.00026014568158168571
sS'P'
F1.040582726326743e-05
sS'S'
F0.0037565036420395418
sS'R'
F0
sS'U'
F0
sS'T'
F0.0050364203954214358
sS'W'
F0.00084287200832466186
sS'V'
F0.0070343392299687833
sS'Y'
F1.040582726326743e-05
sS'X'
F0
sS'Z'
F0
ssI23
(dp54
S'-'
F1.040582726326743e-05
sS'A'
F0.016649323621227886
sS'C'
F1.040582726326743e-05
sS'B'
F0
sS'E'
F1.040582726326743e-05
sS'D'
F0.0014984391259105099
sS'G'
F4.1623309053069721e-05
sS'F'
F0.0081581685744016638
sS'I'
F0.010655567117585849
sS'H'
F0.001259105098855359
sS'K'
F0
sS'M'
F0.00084287200832466186
sS'L'
F0.015026014568158167
sS'N'
F1.040582726326743e-05
sS'Q'
F1.040582726326743e-05
sS'P'
F0.00026014568158168571
sS'S'
F0.0023413111342351716
sS'R'
F1.040582726326743e-05
sS'U'
F0
sS'T'
F0.0081581685744016638
sS'W'
F1.040582726326743e-05
sS'V'
F0.029229968782518208
sS'Y'
F0.0093652445369406864
sS'X'
F0
sS'Z'
F0
ssI24
(dp55
S'-'
F1.040582726326743e-05
sS'A'
F0.0045889698231009373
sS'C'
F4.1623309053069721e-05
sS'B'
F0
sS'E'
F0.0017585848074921958
sS'D'
F0.0010405827263267429
sS'G'
F0.00026014568158168571
sS'F'
F0.0017585848074921958
sS'I'
F0.0014984391259105099
sS'H'
F0.00066597294484911553
sS'K'
F0.00016649323621227888
sS'M'
F9.3652445369406872e-05
sS'L'
F0.0081581685744016638
sS'N'
F0.0023413111342351716
sS'Q'
F0.00084287200832466186
sS'P'
F0.00026014568158168571
sS'S'
F0.014245577523413112
sS'R'
F0.0023413111342351716
sS'U'
F0
sS'T'
F0.0023413111342351716
sS'W'
F9.3652445369406872e-05
sS'V'
F0.0070343392299687833
sS'Y'
F0.043964620187304897
sS'X'
F0
sS'Z'
F0
ssI25
(dp56
S'-'
F0.01133194588969823
sS'A'
F0.0045889698231009373
sS'C'
F1.040582726326743e-05
sS'B'
F0
sS'E'
F0.0026638917793964621
sS'D'
F0.0020395421436004159
sS'G'
F0.00016649323621227888
sS'F'
F0.00066597294484911553
sS'I'
F0.0050364203954214358
sS'H'
F0.00066597294484911553
sS'K'
F0.00016649323621227888
sS'M'
F9.3652445369406872e-05
sS'L'
F0.0093652445369406864
sS'N'
F0.0023413111342351716
sS'Q'
F0.00050988553590010398
sS'P'
F0
sS'S'
F0.0050364203954214358
sS'R'
F0.00026014568158168571
sS'U'
F0
sS'T'
F0.0037565036420395418
sS'W'
F0.00084287200832466186
sS'V'
F0.0045889698231009373
sS'Y'
F0.023975026014568159
sS'X'
F0
sS'Z'
F0
sssI3
(dp57
I0
(dp58
S'-'
F1.040582726326743e-05
sS'A'
F0.0045889698231009373
sS'C'
F9.3652445369406872e-05
sS'B'
F0
sS'E'
F1.040582726326743e-05
sS'D'
F0
sS'G'
F0.0093652445369406864
sS'F'
F0.0081581685744016638
sS'I'
F0.0030072840790842876
sS'H'
F0.00026014568158168571
sS'K'
F0
sS'M'
F0.0093652445369406864
sS'L'
F0.091945889698231004
sS'N'
F0
sS'Q'
F0.00050988553590010398
sS'P'
F0.00026014568158168571
sS'S'
F0.001259105098855359
sS'R'
F1.040582726326743e-05
sS'U'
F0
sS'T'
F0.0020395421436004159
sS'W'
F0.00037460978147762749
sS'V'
F0.010655567117585849
sS'Y'
F0.00016649323621227888
sS'X'
F0
sS'Z'
F0
ssI1
(dp59
S'-'
F0
sS'A'
F1.040582726326743e-05
sS'C'
F0.65036420395421424
sS'B'
F0
sS'E'
F0
sS'D'
F0.00050988553590010398
sS'G'
F1.040582726326743e-05
sS'F'
F0.00016649323621227888
sS'I'
F9.3652445369406872e-05
sS'H'
F4.1623309053069721e-05
sS'K'
F1.040582726326743e-05
sS'M'
F4.1623309053069721e-05
sS'L'
F0.00026014568158168571
sS'N'
F1.040582726326743e-05
sS'Q'
F4.1623309053069721e-05
sS'P'
F4.1623309053069721e-05
sS'S'
F0.00026014568158168571
sS'R'
F0.0010405827263267429
sS'U'
F0
sS'T'
F1.040582726326743e-05
sS'W'
F0.00066597294484911553
sS'V'
F4.1623309053069721e-05
sS'Y'
F9.3652445369406872e-05
sS'X'
F0
sS'Z'
F0
ssI2
(dp60
S'-'
F0
sS'A'
F0.00037460978147762749
sS'C'
F4.1623309053069721e-05
sS'B'
F0
sS'E'
F0.0010405827263267429
sS'D'
F0.0037565036420395418
sS'G'
F9.3652445369406872e-05
sS'F'
F0.0010405827263267429
sS'I'
F0.00066597294484911553
sS'H'
F0.00050988553590010398
sS'K'
F0.099937565036420373
sS'M'
F1.040582726326743e-05
sS'L'
F0.0037565036420395418
sS'N'
F0.0020395421436004159
sS'Q'
F0.0033714880332986474
sS'P'
F0.00026014568158168571
sS'S'
F0.00066597294484911553
sS'R'
F0.032632674297606655
sS'U'
F0
sS'T'
F0.0023413111342351716
sS'W'
F1.040582726326743e-05
sS'V'
F0.00037460978147762749
sS'Y'
F0.00016649323621227888
sS'X'
F0
sS'Z'
F0
ssI3
(dp61
S'-'
F0
sS'A'
F0.010000000000000002
sS'C'
F1.040582726326743e-05
sS'B'
F0
sS'E'
F0
sS'D'
F0
sS'G'
F0.00016649323621227888
sS'F'
F0.019240374609781476
sS'I'
F0.018355879292403749
sS'H'
F0
sS'K'
F0
sS'M'
F0.00084287200832466186
sS'L'
F0.076961498439125905
sS'N'
F1.040582726326743e-05
sS'Q'
F0
sS'P'
F1.040582726326743e-05
sS'S'
F0.00050988553590010398
sS'R'
F0
sS'U'
F0
sS'T'
F0.0030072840790842876
sS'W'
F4.1623309053069721e-05
sS'V'
F0.037460978147762745
sS'Y'
F0.00037460978147762749
sS'X'
F0
sS'Z'
F0
ssI4
(dp62
S'-'
F0
sS'A'
F0.0030072840790842876
sS'C'
F0.00037460978147762749
sS'B'
F0
sS'E'
F0.00026014568158168571
sS'D'
F1.040582726326743e-05
sS'G'
F4.1623309053069721e-05
sS'F'
F0.0087513007284079087
sS'I'
F0.0087513007284079087
sS'H'
F0.001259105098855359
sS'K'
F9.3652445369406872e-05
sS'M'
F0.00084287200832466186
sS'L'
F0.01348595213319459
sS'N'
F0.00026014568158168571
sS'Q'
F9.3652445369406872e-05
sS'P'
F0
sS'S'
F0.0081581685744016638
sS'R'
F0.0014984391259105099
sS'U'
F0
sS'T'
F0.0033714880332986474
sS'W'
F0.0065036420395421434
sS'V'
F0.035005202913631635
sS'Y'
F0.0017585848074921958
sS'X'
F0
sS'Z'
F0
ssI5
(dp63
S'-'
F0
sS'A'
F0.0081581685744016638
sS'C'
F1.040582726326743e-05
sS'B'
F0
sS'E'
F0.00066597294484911553
sS'D'
F0.00066597294484911553
sS'G'
F0.015026014568158167
sS'F'
F0.00084287200832466186
sS'I'
F0.0030072840790842876
sS'H'
F0.0014984391259105099
sS'K'
F0.00084287200832466186
sS'M'
F0.00037460978147762749
sS'L'
F0.0093652445369406864
sS'N'
F0.0023413111342351716
sS'Q'
F0.00066597294484911553
sS'P'
F0.0023413111342351716
sS'S'
F0.01133194588969823
sS'R'
F0.0017585848074921958
sS'U'
F0
sS'T'
F0.01133194588969823
sS'W'
F0
sS'V'
F0.0023413111342351716
sS'Y'
F0.0014984391259105099
sS'X'
F0
sS'Z'
F0
ssI6
(dp64
S'-'
F0
sS'A'
F0.016649323621227886
sS'C'
F0.0010405827263267429
sS'B'
F0
sS'E'
F0
sS'D'
F1.040582726326743e-05
sS'G'
F0.0087513007284079087
sS'F'
F0.052455775234131113
sS'I'
F0.0010405827263267429
sS'H'
F1.040582726326743e-05
sS'K'
F0
sS'M'
F0.00050988553590010398
sS'L'
F0.0041623309053069714
sS'N'
F0.00066597294484911553
sS'Q'
F0
sS'P'
F4.1623309053069721e-05
sS'S'
F0.0127471383975026
sS'R'
F1.040582726326743e-05
sS'U'
F0
sS'T'
F0.0023413111342351716
sS'W'
F0.00016649323621227888
sS'V'
F0.0041623309053069714
sS'Y'
F0.01348595213319459
sS'X'
F0
sS'Z'
F0
ssI7
(dp65
S'-'
F0
sS'A'
F0.0037565036420395418
sS'C'
F0.00066597294484911553
sS'B'
F0
sS'E'
F0
sS'D'
F0
sS'G'
F0.00016649323621227888
sS'F'
F0.014245577523413112
sS'I'
F0.020145681581685743
sS'H'
F1.040582726326743e-05
sS'K'
F0
sS'M'
F0.0026638917793964621
sS'L'
F0.12137356919875131
sS'N'
F0
sS'Q'
F1.040582726326743e-05
sS'P'
F4.1623309053069721e-05
sS'S'
F0.0020395421436004159
sS'R'
F0
sS'U'
F0
sS'T'
F0.0017585848074921958
sS'W'
F0
sS'V'
F0.017492195629552551
sS'Y'
F4.1623309053069721e-05
sS'X'
F0
sS'Z'
F0
ssI8
(dp66
S'-'
F0
sS'A'
F0.00084287200832466186
sS'C'
F4.1623309053069721e-05
sS'B'
F0
sS'E'
F0.00016649323621227888
sS'D'
F0.033808532778355875
sS'G'
F0.00066597294484911553
sS'F'
F0.019240374609781476
sS'I'
F0.0033714880332986474
sS'H'
F0.00016649323621227888
sS'K'
F0.00037460978147762749
sS'M'
F0.0045889698231009373
sS'L'
F0.0075858480749219567
sS'N'
F0
sS'Q'
F0.0059937565036420398
sS'P'
F0.00016649323621227888
sS'S'
F0.00066597294484911553
sS'R'
F0.00026014568158168571
sS'U'
F0
sS'T'
F0.001259105098855359
sS'W'
F0.0045889698231009373
sS'V'
F0.0026638917793964621
sS'Y'
F0.0050364203954214358
sS'X'
F0
sS'Z'
F0
ssI9
(dp67
S'-'
F0
sS'A'
F0.0041623309053069714
sS'C'
F0.00066597294484911553
sS'B'
F0
sS'E'
F0.00084287200832466186
sS'D'
F0.00084287200832466186
sS'G'
F0.0023413111342351716
sS'F'
F0.0087513007284079087
sS'I'
F0.0023413111342351716
sS'H'
F0.0014984391259105099
sS'K'
F0.00050988553590010398
sS'M'
F0.00050988553590010398
sS'L'
F0.0041623309053069714
sS'N'
F9.3652445369406872e-05
sS'Q'
F0.00026014568158168571
sS'P'
F4.1623309053069721e-05
sS'S'
F0.0045889698231009373
sS'R'
F0
sS'U'
F0
sS'T'
F0.010000000000000002
sS'W'
F4.1623309053069721e-05
sS'V'
F0.024984391259105093
sS'Y'
F0.022018730489073879
sS'X'
F0
sS'Z'
F0
ssI10
(dp68
S'-'
F0
sS'A'
F0.0050364203954214358
sS'C'
F0.00084287200832466186
sS'B'
F0
sS'E'
F4.1623309053069721e-05
sS'D'
F0
sS'G'
F0.00037460978147762749
sS'F'
F0.017492195629552551
sS'I'
F0.0075858480749219567
sS'H'
F1.040582726326743e-05
sS'K'
F0
sS'M'
F0.0081581685744016638
sS'L'
F0.043964620187304897
sS'N'
F1.040582726326743e-05
sS'Q'
F1.040582726326743e-05
sS'P'
F0
sS'S'
F0.001259105098855359
sS'R'
F0
sS'U'
F0
sS'T'
F0.0087513007284079087
sS'W'
F1.040582726326743e-05
sS'V'
F0.037460978147762745
sS'Y'
F0.00037460978147762749
sS'X'
F0
sS'Z'
F0
ssI11
(dp69
S'-'
F0
sS'A'
F0.0087513007284079087
sS'C'
F0.0065036420395421434
sS'B'
F0
sS'E'
F0
sS'D'
F0
sS'G'
F0.0041623309053069714
sS'F'
F0.010655567117585849
sS'I'
F0.00026014568158168571
sS'H'
F4.1623309053069721e-05
sS'K'
F0
sS'M'
F9.3652445369406872e-05
sS'L'
F0.0055046826222684697
sS'N'
F0.060104058272632668
sS'Q'
F0
sS'P'
F9.3652445369406872e-05
sS'S'
F0.041300728407908424
sS'R'
F0
sS'U'
F0
sS'T'
F0.0045889698231009373
sS'W'
F1.040582726326743e-05
sS'V'
F0.00026014568158168571
sS'Y'
F4.1623309053069721e-05
sS'X'
F0
sS'Z'
F0
ssI12
(dp70
S'-'
F0
sS'A'
F0.00050988553590010398
sS'C'
F0.010000000000000002
sS'B'
F0
sS'E'
F0
sS'D'
F1.040582726326743e-05
sS'G'
F0.0030072840790842876
sS'F'
F0.0065036420395421434
sS'I'
F0.0014984391259105099
sS'H'
F0
sS'K'
F4.1623309053069721e-05
sS'M'
F0.030343392299687827
sS'L'
F0.017492195629552551
sS'N'
F0.0055046826222684697
sS'Q'
F0.00026014568158168571
sS'P'
F4.1623309053069721e-05
sS'S'
F0.0070343392299687833
sS'R'
F0.00084287200832466186
sS'U'
F0
sS'T'
F0.0023413111342351716
sS'W'
F0
sS'V'
F0.0093652445369406864
sS'Y'
F0.0010405827263267429
sS'X'
F0
sS'Z'
F0
ssI13
(dp71
S'-'
F0
sS'A'
F0.00084287200832466186
sS'C'
F4.1623309053069721e-05
sS'B'
F0
sS'E'
F0.001259105098855359
sS'D'
F0
sS'G'
F0.0010405827263267429
sS'F'
F0.022986472424557751
sS'I'
F0.0014984391259105099
sS'H'
F0.0055046826222684697
sS'K'
F0
sS'M'
F0
sS'L'
F0.0070343392299687833
sS'N'
F0.00084287200832466186
sS'Q'
F0.001259105098855359
sS'P'
F1.040582726326743e-05
sS'S'
F0.0055046826222684697
sS'R'
F0
sS'U'
F0
sS'T'
F0.018355879292403749
sS'W'
F0
sS'V'
F0.00037460978147762749
sS'Y'
F0.063309053069719026
sS'X'
F0
sS'Z'
F0
ssI14
(dp72
S'-'
F0
sS'A'
F0.13053069719042662
sS'C'
F0.0026638917793964621
sS'B'
F0
sS'E'
F4.1623309053069721e-05
sS'D'
F0
sS'G'
F0.0045889698231009373
sS'F'
F0.00084287200832466186
sS'I'
F0.0010405827263267429
sS'H'
F9.3652445369406872e-05
sS'K'
F0
sS'M'
F4.1623309053069721e-05
sS'L'
F0.0023413111342351716
sS'N'
F1.040582726326743e-05
sS'Q'
F0
sS'P'
F0
sS'S'
F0.028137356919875133
sS'R'
F0
sS'U'
F0
sS'T'
F0.0065036420395421434
sS'W'
F0
sS'V'
F0.018355879292403749
sS'Y'
F0
sS'X'
F0
sS'Z'
F0
ssI15
(dp73
S'-'
F0
sS'A'
F0.0010405827263267429
sS'C'
F0.00016649323621227888
sS'B'
F0
sS'E'
F0.00026014568158168571
sS'D'
F0
sS'G'
F0.010000000000000002
sS'F'
F0
sS'I'
F0
sS'H'
F1.040582726326743e-05
sS'K'
F1.040582726326743e-05
sS'M'
F0
sS'L'
F4.1623309053069721e-05
sS'N'
F0.00026014568158168571
sS'Q'
F1.040582726326743e-05
sS'P'
F0.00016649323621227888
sS'S'
F0.5036420395421437
sS'R'
F0
sS'U'
F0
sS'T'
F0.0070343392299687833
sS'W'
F0
sS'V'
F0
sS'Y'
F0
sS'X'
F0
sS'Z'
F0
ssI16
(dp74
S'-'
F0
sS'A'
F0.0023413111342351716
sS'C'
F0.00016649323621227888
sS'B'
F0
sS'E'
F0
sS'D'
F1.040582726326743e-05
sS'G'
F9.3652445369406872e-05
sS'F'
F0.00016649323621227888
sS'I'
F0.13761706555671177
sS'H'
F0
sS'K'
F0
sS'M'
F0.0041623309053069714
sS'L'
F0.017492195629552551
sS'N'
F0.00016649323621227888
sS'Q'
F0
sS'P'
F0
sS'S'
F0.00066597294484911553
sS'R'
F0
sS'U'
F0
sS'T'
F0.0050364203954214358
sS'W'
F0
sS'V'
F0.053943808532778359
sS'Y'
F1.040582726326743e-05
sS'X'
F0
sS'Z'
F0
ssI17
(dp75
S'-'
F0
sS'A'
F0.0020395421436004159
sS'C'
F0.001259105098855359
sS'B'
F0
sS'E'
F9.3652445369406872e-05
sS'D'
F0
sS'G'
F0.00026014568158168571
sS'F'
F0.066597294484911543
sS'I'
F0.0010405827263267429
sS'H'
F1.040582726326743e-05
sS'K'
F4.1623309053069721e-05
sS'M'
F0.001259105098855359
sS'L'
F0.082424557752341324
sS'N'
F0.00016649323621227888
sS'Q'
F4.1623309053069721e-05
sS'P'
F1.040582726326743e-05
sS'S'
F0.001259105098855359
sS'R'
F0
sS'U'
F0
sS'T'
F1.040582726326743e-05
sS'W'
F0.01202913631633715
sS'V'
F0.00066597294484911553
sS'Y'
F0.0055046826222684697
sS'X'
F0
sS'Z'
F0
ssI18
(dp76
S'-'
F0
sS'A'
F0.00016649323621227888
sS'C'
F0.00050988553590010398
sS'B'
F0
sS'E'
F0
sS'D'
F0
sS'G'
F9.3652445369406872e-05
sS'F'
F0.048116545265348601
sS'I'
F0.0020395421436004159
sS'H'
F0.0045889698231009373
sS'K'
F0
sS'M'
F0.0010405827263267429
sS'L'
F0.042622268470343394
sS'N'
F0.0075858480749219567
sS'Q'
F1.040582726326743e-05
sS'P'
F0
sS'S'
F0.020145681581685743
sS'R'
F0
sS'U'
F0
sS'T'
F0.019240374609781476
sS'W'
F1.040582726326743e-05
sS'V'
F9.3652445369406872e-05
sS'Y'
F0
sS'X'
F0
sS'Z'
F0
ssI19
(dp77
S'-'
F0
sS'A'
F0.0041623309053069714
sS'C'
F4.1623309053069721e-05
sS'B'
F0
sS'E'
F0
sS'D'
F0
sS'G'
F9.3652445369406872e-05
sS'F'
F0.00016649323621227888
sS'I'
F0.0081581685744016638
sS'H'
F1.040582726326743e-05
sS'K'
F0
sS'M'
F0.0020395421436004159
sS'L'
F0.45019771071800213
sS'N'
F4.1623309053069721e-05
sS'Q'
F0
sS'P'
F1.040582726326743e-05
sS'S'
F1.040582726326743e-05
sS'R'
F0
sS'U'
F0
sS'T'
F0.00037460978147762749
sS'W'
F0
sS'V'
F0.0037565036420395418
sS'Y'
F1.040582726326743e-05
sS'X'
F0
sS'Z'
F0
ssI20
(dp78
S'-'
F0
sS'A'
F0.023975026014568159
sS'C'
F0.020145681581685743
sS'B'
F0
sS'E'
F0
sS'D'
F0
sS'G'
F0.0010405827263267429
sS'F'
F0.00066597294484911553
sS'I'
F0.00037460978147762749
sS'H'
F1.040582726326743e-05
sS'K'
F0
sS'M'
F0.00037460978147762749
sS'L'
F0.015827263267429757
sS'N'
F0
sS'Q'
F0
sS'P'
F4.1623309053069721e-05
sS'S'
F0.0037565036420395418
sS'R'
F0
sS'U'
F0
sS'T'
F0.11039542143600417
sS'W'
F0
sS'V'
F0.0059937565036420398
sS'Y'
F0
sS'X'
F0
sS'Z'
F0
ssI21
(dp79
S'-'
F0
sS'A'
F0.11039542143600417
sS'C'
F0.026014568158168574
sS'B'
F0
sS'E'
F0
sS'D'
F0
sS'G'
F0.00066597294484911553
sS'F'
F0.0030072840790842876
sS'I'
F0.0017585848074921958
sS'H'
F0
sS'K'
F0
sS'M'
F9.3652445369406872e-05
sS'L'
F0.015026014568158167
sS'N'
F1.040582726326743e-05
sS'Q'
F0
sS'P'
F1.040582726326743e-05
sS'S'
F0.0023413111342351716
sS'R'
F0
sS'U'
F0
sS'T'
F0.00084287200832466186
sS'W'
F0.00050988553590010398
sS'V'
F0.020145681581685743
sS'Y'
F1.040582726326743e-05
sS'X'
F0
sS'Z'
F0
ssI22
(dp80
S'-'
F0
sS'A'
F0.00016649323621227888
sS'C'
F0
sS'B'
F0
sS'E'
F0
sS'D'
F0
sS'G'
F1.040582726326743e-05
sS'F'
F0.00016649323621227888
sS'I'
F0.27309053069719041
sS'H'
F0
sS'K'
F0
sS'M'
F0.015026014568158167
sS'L'
F0.049542143600416241
sS'N'
F0
sS'Q'
F0
sS'P'
F0
sS'S'
F1.040582726326743e-05
sS'R'
F0
sS'U'
F0
sS'T'
F9.3652445369406872e-05
sS'W'
F0
sS'V'
F0.0081581685744016638
sS'Y'
F0
sS'X'
F0
sS'Z'
F0
ssI23
(dp81
S'-'
F0
sS'A'
F0.073423517169614996
sS'C'
F0.00037460978147762749
sS'B'
F0
sS'E'
F0
sS'D'
F0
sS'G'
F0.00066597294484911553
sS'F'
F1.040582726326743e-05
sS'I'
F0
sS'H'
F1.040582726326743e-05
sS'K'
F1.040582726326743e-05
sS'M'
F0
sS'L'
F4.1623309053069721e-05
sS'N'
F0.00016649323621227888
sS'Q'
F0
sS'P'
F0
sS'S'
F0.31867845993756511
sS'R'
F0
sS'U'
F0
sS'T'
F0.0075858480749219567
sS'W'
F0
sS'V'
F1.040582726326743e-05
sS'Y'
F0
sS'X'
F0
sS'Z'
F0
ssI24
(dp82
S'-'
F0
sS'A'
F0.0030072840790842876
sS'C'
F1.040582726326743e-05
sS'B'
F0
sS'E'
F0
sS'D'
F0
sS'G'
F9.3652445369406872e-05
sS'F'
F0.0030072840790842876
sS'I'
F0.060104058272632668
sS'H'
F0
sS'K'
F1.040582726326743e-05
sS'M'
F9.3652445369406872e-05
sS'L'
F0.048116545265348601
sS'N'
F0
sS'Q'
F1.040582726326743e-05
sS'P'
F1.040582726326743e-05
sS'S'
F9.3652445369406872e-05
sS'R'
F0
sS'U'
F0
sS'T'
F0.00050988553590010398
sS'W'
F4.1623309053069721e-05
sS'V'
F0.11039542143600417
sS'Y'
F0.00050988553590010398
sS'X'
F0
sS'Z'
F0
ssI25
(dp83
S'-'
F0
sS'A'
F4.1623309053069721e-05
sS'C'
F0
sS'B'
F0
sS'E'
F0.037460978147762745
sS'D'
F0.35229968782518206
sS'G'
F4.1623309053069721e-05
sS'F'
F0.0045889698231009373
sS'I'
F0
sS'H'
F0.00084287200832466186
sS'K'
F0
sS'M'
F0
sS'L'
F0.00026014568158168571
sS'N'
F0.00084287200832466186
sS'Q'
F0.00050988553590010398
sS'P'
F0
sS'S'
F1.040582726326743e-05
sS'R'
F1.040582726326743e-05
sS'U'
F0
sS'T'
F0.00026014568158168571
sS'W'
F0
sS'V'
F9.3652445369406872e-05
sS'Y'
F1.040582726326743e-05
sS'X'
F0
sS'Z'
F0
ssI26
(dp84
S'-'
F0
sS'A'
F0
sS'C'
F0.00016649323621227888
sS'B'
F0
sS'E'
F0
sS'D'
F0
sS'G'
F0
sS'F'
F4.1623309053069721e-05
sS'I'
F0
sS'H'
F4.1623309053069721e-05
sS'K'
F9.3652445369406872e-05
sS'M'
F0
sS'L'
F1.040582726326743e-05
sS'N'
F0
sS'Q'
F1.040582726326743e-05
sS'P'
F0
sS'S'
F0
sS'R'
F0.77553590010405826
sS'U'
F0
sS'T'
F1.040582726326743e-05
sS'W'
F0
sS'V'
F0
sS'Y'
F0.0055046826222684697
sS'X'
F0
sS'Z'
F0
ssI27
(dp85
S'-'
F0
sS'A'
F1.040582726326743e-05
sS'C'
F0.015827263267429757
sS'B'
F0
sS'E'
F0
sS'D'
F0
sS'G'
F1.040582726326743e-05
sS'F'
F0.01348595213319459
sS'I'
F0
sS'H'
F0.0014984391259105099
sS'K'
F0
sS'M'
F9.3652445369406872e-05
sS'L'
F0.001259105098855359
sS'N'
F0
sS'Q'
F1.040582726326743e-05
sS'P'
F0
sS'S'
F0.00026014568158168571
sS'R'
F1.040582726326743e-05
sS'U'
F0
sS'T'
F0
sS'W'
F0.0010405827263267429
sS'V'
F0
sS'Y'
F0.3756503642039542
sS'X'
F0
sS'Z'
F0
ssI28
(dp86
S'-'
F0
sS'A'
F0.00066597294484911553
sS'C'
F0.00050988553590010398
sS'B'
F0
sS'E'
F0
sS'D'
F1.040582726326743e-05
sS'G'
F4.1623309053069721e-05
sS'F'
F0.0030072840790842876
sS'I'
F0.015026014568158167
sS'H'
F0.00037460978147762749
sS'K'
F9.3652445369406872e-05
sS'M'
F0.00084287200832466186
sS'L'
F0.17857440166493238
sS'N'
F0
sS'Q'
F0.00066597294484911553
sS'P'
F0
sS'S'
F9.3652445369406872e-05
sS'R'
F0.0020395421436004159
sS'U'
F0
sS'T'
F0.00016649323621227888
sS'W'
F0.0023413111342351716
sS'V'
F0.010000000000000002
sS'Y'
F0.0017585848074921958
sS'X'
F0
sS'Z'
F0
ssI29
(dp87
S'-'
F0
sS'A'
F0.1924661810613944
sS'C'
F0.0014984391259105099
sS'B'
F0
sS'E'
F4.1623309053069721e-05
sS'D'
F0
sS'G'
F0.0030072840790842876
sS'F'
F4.1623309053069721e-05
sS'I'
F0.00026014568158168571
sS'H'
F1.040582726326743e-05
sS'K'
F0.0093652445369406864
sS'M'
F0.00026014568158168571
sS'L'
F0.0010405827263267429
sS'N'
F4.1623309053069721e-05
sS'Q'
F4.1623309053069721e-05
sS'P'
F0
sS'S'
F0.015827263267429757
sS'R'
F0.00066597294484911553
sS'U'
F0
sS'T'
F0.0020395421436004159
sS'W'
F0
sS'V'
F0.0041623309053069714
sS'Y'
F0.00026014568158168571
sS'X'
F0
sS'Z'
F0
sssI4
(dp88
I0
(dp89
S'-'
F0.0014984391259105099
sS'A'
F0.0041623309053069714
sS'C'
F0.0014984391259105099
sS'B'
F0
sS'E'
F0
sS'D'
F9.3652445369406872e-05
sS'G'
F0.00037460978147762749
sS'F'
F0.0014984391259105099
sS'I'
F0.00016649323621227888
sS'H'
F0.0041623309053069714
sS'K'
F0.0070343392299687833
sS'M'
F0.00026014568158168571
sS'L'
F0.0065036420395421434
sS'N'
F0.0023413111342351716
sS'Q'
F0.0020395421436004159
sS'P'
F0.00016649323621227888
sS'S'
F0.0026638917793964621
sS'R'
F0.037460978147762745
sS'U'
F0
sS'T'
F0.0030072840790842876
sS'W'
F0.00037460978147762749
sS'V'
F0.0037565036420395418
sS'Y'
F0.0020395421436004159
sS'X'
F0
sS'Z'
F0
ssI1
(dp90
S'-'
F0
sS'A'
F0.20982310093652445
sS'C'
F9.3652445369406872e-05
sS'B'
F0
sS'E'
F1.040582726326743e-05
sS'D'
F9.3652445369406872e-05
sS'G'
F0.0055046826222684697
sS'F'
F4.1623309053069721e-05
sS'I'
F0.0026638917793964621
sS'H'
F0
sS'K'
F0.00050988553590010398
sS'M'
F0.00016649323621227888
sS'L'
F0.00026014568158168571
sS'N'
F4.1623309053069721e-05
sS'Q'
F1.040582726326743e-05
sS'P'
F9.3652445369406872e-05
sS'S'
F0.01202913631633715
sS'R'
F0.0023413111342351716
sS'U'
F0
sS'T'
F0.0065036420395421434
sS'W'
F0
sS'V'
F0.0055046826222684697
sS'Y'
F1.040582726326743e-05
sS'X'
F0
sS'Z'
F0
ssI2
(dp91
S'-'
F0
sS'A'
F0.015026014568158167
sS'C'
F0.00050988553590010398
sS'B'
F0
sS'E'
F1.040582726326743e-05
sS'D'
F0
sS'G'
F0.0026638917793964621
sS'F'
F0.0010405827263267429
sS'I'
F0.0020395421436004159
sS'H'
F0.00026014568158168571
sS'K'
F0.022986472424557751
sS'M'
F4.1623309053069721e-05
sS'L'
F0.017492195629552551
sS'N'
F4.1623309053069721e-05
sS'Q'
F9.3652445369406872e-05
sS'P'
F1.040582726326743e-05
sS'S'
F0.00066597294484911553
sS'R'
F0.016649323621227886
sS'U'
F0
sS'T'
F0.00084287200832466186
sS'W'
F0.0017585848074921958
sS'V'
F0.018355879292403749
sS'Y'
F0.001259105098855359
sS'X'
F0
sS'Z'
F0
ssI3
(dp92
S'-'
F0
sS'A'
F0.01348595213319459
sS'C'
F0.00016649323621227888
sS'B'
F0
sS'E'
F0
sS'D'
F0
sS'G'
F0.0033714880332986474
sS'F'
F0.0010405827263267429
sS'I'
F0.020145681581685743
sS'H'
F9.3652445369406872e-05
sS'K'
F0.00084287200832466186
sS'M'
F0.0033714880332986474
sS'L'
F0.042622268470343394
sS'N'
F1.040582726326743e-05
sS'Q'
F4.1623309053069721e-05
sS'P'
F1.040582726326743e-05
sS'S'
F0.00066597294484911553
sS'R'
F0.00084287200832466186
sS'U'
F0
sS'T'
F0.0014984391259105099
sS'W'
F0.00016649323621227888
sS'V'
F0.041300728407908424
sS'Y'
F0.00016649323621227888
sS'X'
F0
sS'Z'
F0
ssI4
(dp93
S'-'
F0
sS'A'
F0.010655567117585849
sS'C'
F0.00050988553590010398
sS'B'
F0
sS'E'
F4.1623309053069721e-05
sS'D'
F0
sS'G'
F0.00066597294484911553
sS'F'
F1.040582726326743e-05
sS'I'
F0.018355879292403749
sS'H'
F4.1623309053069721e-05
sS'K'
F0.00084287200832466186
sS'M'
F0.0075858480749219567
sS'L'
F0.040000000000000008
sS'N'
F1.040582726326743e-05
sS'Q'
F0
sS'P'
F0.00066597294484911553
sS'S'
F0.0010405827263267429
sS'R'
F0
sS'U'
F0
sS'T'
F0.0045889698231009373
sS'W'
F0
sS'V'
F0.05545265348595213
sS'Y'
F0.00026014568158168571
sS'X'
F0
sS'Z'
F0
ssI5
(dp94
S'-'
F0
sS'A'
F0.0033714880332986474
sS'C'
F0.031477627471383982
sS'B'
F0
sS'E'
F0
sS'D'
F0
sS'G'
F4.1623309053069721e-05
sS'F'
F4.1623309053069721e-05
sS'I'
F0.075182101977107174
sS'H'
F0
sS'K'
F0
sS'M'
F0.0010405827263267429
sS'L'
F0.019240374609781476
sS'N'
F0.00037460978147762749
sS'Q'
F1.040582726326743e-05
sS'P'
F0
sS'S'
F0.014245577523413112
sS'R'
F1.040582726326743e-05
sS'U'
F0
sS'T'
F0.00037460978147762749
sS'W'
F0.0010405827263267429
sS'V'
F0.01133194588969823
sS'Y'
F1.040582726326743e-05
sS'X'
F0
sS'Z'
F0
ssI6
(dp95
S'-'
F0
sS'A'
F0.052455775234131113
sS'C'
F0.0023413111342351716
sS'B'
F0
sS'E'
F0
sS'D'
F0
sS'G'
F0.01348595213319459
sS'F'
F0.00066597294484911553
sS'I'
F0.0093652445369406864
sS'H'
F0
sS'K'
F0
sS'M'
F0.0023413111342351716
sS'L'
F0.035005202913631635
sS'N'
F0
sS'Q'
F0
sS'P'
F0.00037460978147762749
sS'S'
F0.00084287200832466186
sS'R'
F0
sS'U'
F0
sS'T'
F0.001259105098855359
sS'W'
F0
sS'V'
F0.024984391259105093
sS'Y'
F4.1623309053069721e-05
sS'X'
F0
sS'Z'
F0
ssI7
(dp96
S'-'
F0.001259105098855359
sS'A'
F0.027065556711758587
sS'C'
F0.0020395421436004159
sS'B'
F0
sS'E'
F0
sS'D'
F0
sS'G'
F0.021071800208116546
sS'F'
F0.0017585848074921958
sS'I'
F0.0055046826222684697
sS'H'
F0
sS'K'
F0
sS'M'
F0.00037460978147762749
sS'L'
F0.075182101977107174
sS'N'
F0
sS'Q'
F0
sS'P'
F0
sS'S'
F0.0010405827263267429
sS'R'
F0
sS'U'
F0
sS'T'
F0.0010405827263267429
sS'W'
F1.040582726326743e-05
sS'V'
F0.01348595213319459
sS'Y'
F0.00026014568158168571
sS'X'
F0
sS'Z'
F0
ssI8
(dp97
S'-'
F0
sS'A'
F0.0075858480749219567
sS'C'
F0.0020395421436004159
sS'B'
F0
sS'E'
F0
sS'D'
F0
sS'G'
F0.00050988553590010398
sS'F'
F1.040582726326743e-05
sS'I'
F0.076961498439125905
sS'H'
F0
sS'K'
F0
sS'M'
F9.3652445369406872e-05
sS'L'
F0.019240374609781476
sS'N'
F1.040582726326743e-05
sS'Q'
F0
sS'P'
F9.3652445369406872e-05
sS'S'
F0.0014984391259105099
sS'R'
F1.040582726326743e-05
sS'U'
F0
sS'T'
F0.0045889698231009373
sS'W'
F1.040582726326743e-05
sS'V'
F0.080582726326742973
sS'Y'
F4.1623309053069721e-05
sS'X'
F0
sS'Z'
F0
ssI9
(dp98
S'-'
F0
sS'A'
F9.3652445369406872e-05
sS'C'
F1.040582726326743e-05
sS'B'
F0
sS'E'
F0
sS'D'
F0
sS'G'
F0.0030072840790842876
sS'F'
F9.3652445369406872e-05
sS'I'
F0
sS'H'
F0
sS'K'
F0
sS'M'
F0
sS'L'
F0.00016649323621227888
sS'N'
F0
sS'Q'
F0
sS'P'
F0
sS'S'
F4.1623309053069721e-05
sS'R'
F0
sS'U'
F0
sS'T'
F0
sS'W'
F0.79267429760665986
sS'V'
F1.040582726326743e-05
sS'Y'
F9.3652445369406872e-05
sS'X'
F0
sS'Z'
F0
ssI10
(dp99
S'-'
F0
sS'A'
F0.033808532778355875
sS'C'
F0.00026014568158168571
sS'B'
F0
sS'E'
F0
sS'D'
F0
sS'G'
F0.0075858480749219567
sS'F'
F0.00016649323621227888
sS'I'
F0.01348595213319459
sS'H'
F0
sS'K'
F0
sS'M'
F0.00066597294484911553
sS'L'
F0.040000000000000008
sS'N'
F0
sS'Q'
F0
sS'P'
F0.00026014568158168571
sS'S'
F0.0023413111342351716
sS'R'
F0
sS'U'
F0
sS'T'
F0.0050364203954214358
sS'W'
F4.1623309053069721e-05
sS'V'
F0.045327783558792918
sS'Y'
F1.040582726326743e-05
sS'X'
F0
sS'Z'
F0
ssI11
(dp100
S'-'
F0
sS'A'
F0.0050364203954214358
sS'C'
F9.3652445369406872e-05
sS'B'
F0
sS'E'
F0
sS'D'
F0
sS'G'
F0.0010405827263267429
sS'F'
F0.0045889698231009373
sS'I'
F0.01202913631633715
sS'H'
F9.3652445369406872e-05
sS'K'
F4.1623309053069721e-05
sS'M'
F0.0010405827263267429
sS'L'
F0.16783558792924036
sS'N'
F0
sS'Q'
F1.040582726326743e-05
sS'P'
F9.3652445369406872e-05
sS'S'
F0.00016649323621227888
sS'R'
F0
sS'U'
F0
sS'T'
F0.001259105098855359
sS'W'
F4.1623309053069721e-05
sS'V'
F0.027065556711758587
sS'Y'
F0.00037460978147762749
sS'X'
F0
sS'Z'
F0
ssI12
(dp101
S'-'
F0
sS'A'
F0.09391259105098855
sS'C'
F0.0010405827263267429
sS'B'
F0
sS'E'
F9.3652445369406872e-05
sS'D'
F4.1623309053069721e-05
sS'G'
F0.00084287200832466186
sS'F'
F9.3652445369406872e-05
sS'I'
F0.00084287200832466186
sS'H'
F0
sS'K'
F0
sS'M'
F0.00026014568158168571
sS'L'
F0.0017585848074921958
sS'N'
F4.1623309053069721e-05
sS'Q'
F0
sS'P'
F0.00084287200832466186
sS'S'
F0.13053069719042662
sS'R'
F0
sS'U'
F0
sS'T'
F0.0010405827263267429
sS'W'
F0
sS'V'
F0.0081581685744016638
sS'Y'
F0
sS'X'
F0
sS'Z'
F0
ssI13
(dp102
S'-'
F0
sS'A'
F0.015827263267429757
sS'C'
F0.00084287200832466186
sS'B'
F0
sS'E'
F0
sS'D'
F0
sS'G'
F0.001259105098855359
sS'F'
F0.032632674297606655
sS'I'
F0.015827263267429757
sS'H'
F0
sS'K'
F0
sS'M'
F0.00050988553590010398
sS'L'
F0.078761706555671177
sS'N'
F0
sS'Q'
F0
sS'P'
F0
sS'S'
F0.0017585848074921958
sS'R'
F0
sS'U'
F0
sS'T'
F0.0023413111342351716
sS'W'
F1.040582726326743e-05
sS'V'
F0.010000000000000002
sS'Y'
F4.1623309053069721e-05
sS'X'
F0
sS'Z'
F0
ssI14
(dp103
S'-'
F0
sS'A'
F0.018355879292403749
sS'C'
F0.0010405827263267429
sS'B'
F0
sS'E'
F0
sS'D'
F0
sS'G'
F0.0065036420395421434
sS'F'
F0.0017585848074921958
sS'I'
F0.0033714880332986474
sS'H'
F0
sS'K'
F0
sS'M'
F4.1623309053069721e-05
sS'L'
F0.14489073881373568
sS'N'
F4.1623309053069721e-05
sS'Q'
F0
sS'P'
F1.040582726326743e-05
sS'S'
F0.0026638917793964621
sS'R'
F0
sS'U'
F0
sS'T'
F0.0030072840790842876
sS'W'
F4.1623309053069721e-05
sS'V'
F0.020145681581685743
sS'Y'
F0
sS'X'
F0
sS'Z'
F0
ssI15
(dp104
S'-'
F9.3652445369406872e-05
sS'A'
F0.01202913631633715
sS'C'
F0.00084287200832466186
sS'B'
F0
sS'E'
F1.040582726326743e-05
sS'D'
F0
sS'G'
F0.00050988553590010398
sS'F'
F0.010655567117585849
sS'I'
F0.022018730489073879
sS'H'
F0.00016649323621227888
sS'K'
F0
sS'M'
F0.0010405827263267429
sS'L'
F0.075182101977107174
sS'N'
F1.040582726326743e-05
sS'Q'
F9.3652445369406872e-05
sS'P'
F0
sS'S'
F0.0017585848074921958
sS'R'
F9.3652445369406872e-05
sS'U'
F0
sS'T'
F0.00037460978147762749
sS'W'
F0.00026014568158168571
sS'V'
F0.017492195629552551
sS'Y'
F0.00050988553590010398
sS'X'
F0
sS'Z'
F0
ssI16
(dp105
S'-'
F0.0033714880332986474
sS'A'
F0.03872008324661811
sS'C'
F0.0050364203954214358
sS'B'
F0
sS'E'
F0
sS'D'
F1.040582726326743e-05
sS'G'
F0.010655567117585849
sS'F'
F0.00084287200832466186
sS'I'
F0.00050988553590010398
sS'H'
F4.1623309053069721e-05
sS'K'
F0
sS'M'
F0.00084287200832466186
sS'L'
F0.0014984391259105099
sS'N'
F0.00037460978147762749
sS'Q'
F1.040582726326743e-05
sS'P'
F0.00016649323621227888
sS'S'
F0.069968782518210204
sS'R'
F0
sS'U'
F0
sS'T'
F0.0059937565036420398
sS'W'
F0.00037460978147762749
sS'V'
F0.0017585848074921958
sS'Y'
F1.040582726326743e-05
sS'X'
F0
sS'Z'
F0
ssI17
(dp106
S'-'
F0.058532778355879299
sS'A'
F0.0087513007284079087
sS'C'
F0.00016649323621227888
sS'B'
F0
sS'E'
F1.040582726326743e-05
sS'D'
F1.040582726326743e-05
sS'G'
F0.0020395421436004159
sS'F'
F0.0059937565036420398
sS'I'
F0.0070343392299687833
sS'H'
F0.00026014568158168571
sS'K'
F0
sS'M'
F0.00037460978147762749
sS'L'
F0.027065556711758587
sS'N'
F9.3652445369406872e-05
sS'Q'
F1.040582726326743e-05
sS'P'
F1.040582726326743e-05
sS'S'
F0.0059937565036420398
sS'R'
F0
sS'U'
F0
sS'T'
F0.0045889698231009373
sS'W'
F0
sS'V'
F0.0050364203954214358
sS'Y'
F4.1623309053069721e-05
sS'X'
F0
sS'Z'
F0
ssI18
(dp107
S'-'
F0.021071800208116546
sS'A'
F0.00084287200832466186
sS'C'
F0.00026014568158168571
sS'B'
F0
sS'E'
F0
sS'D'
F4.1623309053069721e-05
sS'G'
F0.00050988553590010398
sS'F'
F1.040582726326743e-05
sS'I'
F0.0059937565036420398
sS'H'
F9.3652445369406872e-05
sS'K'
F0
sS'M'
F0.00037460978147762749
sS'L'
F0.049542143600416241
sS'N'
F0
sS'Q'
F0
sS'P'
F0.11039542143600417
sS'S'
F0.001259105098855359
sS'R'
F0
sS'U'
F0
sS'T'
F0.00037460978147762749
sS'W'
F0
sS'V'
F0.0030072840790842876
sS'Y'
F4.1623309053069721e-05
sS'X'
F0
sS'Z'
F0
ssI19
(dp108
S'-'
F0.014245577523413112
sS'A'
F0.0033714880332986474
sS'C'
F1.040582726326743e-05
sS'B'
F0
sS'E'
F0.0010405827263267429
sS'D'
F0
sS'G'
F4.1623309053069721e-05
sS'F'
F0.0020395421436004159
sS'I'
F0.0014984391259105099
sS'H'
F9.3652445369406872e-05
sS'K'
F0
sS'M'
F0.00037460978147762749
sS'L'
F0.0055046826222684697
sS'N'
F0.00016649323621227888
sS'Q'
F0.0010405827263267429
sS'P'
F0.1352341311134235
sS'S'
F0.0017585848074921958
sS'R'
F1.040582726326743e-05
sS'U'
F0
sS'T'
F0.001259105098855359
sS'W'
F4.1623309053069721e-05
sS'V'
F0.0055046826222684697
sS'Y'
F0.00037460978147762749
sS'X'
F0
sS'Z'
F0
ssI20
(dp109
S'-'
F0.014245577523413112
sS'A'
F0.0055046826222684697
sS'C'
F9.3652445369406872e-05
sS'B'
F0
sS'E'
F0.0010405827263267429
sS'D'
F0.00037460978147762749
sS'G'
F0.00037460978147762749
sS'F'
F0.0041623309053069714
sS'I'
F0.0050364203954214358
sS'H'
F1.040582726326743e-05
sS'K'
F1.040582726326743e-05
sS'M'
F0.00066597294484911553
sS'L'
F0.066597294484911543
sS'N'
F0.0010405827263267429
sS'Q'
F0.00037460978147762749
sS'P'
F0.00066597294484911553
sS'S'
F0.0010405827263267429
sS'R'
F0
sS'U'
F0
sS'T'
F0.00066597294484911553
sS'W'
F0.00084287200832466186
sS'V'
F0.01202913631633715
sS'Y'
F0.00066597294484911553
sS'X'
F0
sS'Z'
F0
ssI21
(dp110
S'-'
F0.053943808532778359
sS'A'
F0.0026638917793964621
sS'C'
F1.040582726326743e-05
sS'B'
F0
sS'E'
F0
sS'D'
F0
sS'G'
F0.00016649323621227888
sS'F'
F0.015827263267429757
sS'I'
F0.010655567117585849
sS'H'
F0.00026014568158168571
sS'K'
F0.00026014568158168571
sS'M'
F0.0017585848074921958
sS'L'
F0.027065556711758587
sS'N'
F1.040582726326743e-05
sS'Q'
F0.00016649323621227888
sS'P'
F0.00066597294484911553
sS'S'
F0.0010405827263267429
sS'R'
F0.00016649323621227888
sS'U'
F0
sS'T'
F0.00026014568158168571
sS'W'
F4.1623309053069721e-05
sS'V'
F0.0081581685744016638
sS'Y'
F0.0010405827263267429
sS'X'
F0
sS'Z'
F0
sssI5
(dp111
I0
(dp112
S'-'
F0.001259105098855359
sS'A'
F0.010000000000000002
sS'C'
F1.040582726326743e-05
sS'B'
F0
sS'E'
F0.00026014568158168571
sS'D'
F0.00066597294484911553
sS'G'
F0.0014984391259105099
sS'F'
F0.0014984391259105099
sS'I'
F0.0030072840790842876
sS'H'
F0.001259105098855359
sS'K'
F0.0055046826222684697
sS'M'
F0.00037460978147762749
sS'L'
F0.0087513007284079087
sS'N'
F0.001259105098855359
sS'Q'
F0.0045889698231009373
sS'P'
F0.0017585848074921958
sS'S'
F0.0026638917793964621
sS'R'
F0.0055046826222684697
sS'U'
F0
sS'T'
F0.0070343392299687833
sS'W'
F0.00016649323621227888
sS'V'
F0.0059937565036420398
sS'Y'
F0.00037460978147762749
sS'X'
F0
sS'Z'
F0
ssI1
(dp113
S'-'
F0.0087513007284079087
sS'A'
F0.017492195629552551
sS'C'
F4.1623309053069721e-05
sS'B'
F0
sS'E'
F4.1623309053069721e-05
sS'D'
F0.00016649323621227888
sS'G'
F0.0020395421436004159
sS'F'
F0.0059937565036420398
sS'I'
F0.0033714880332986474
sS'H'
F0.00026014568158168571
sS'K'
F9.3652445369406872e-05
sS'M'
F0.00050988553590010398
sS'L'
F0.0037565036420395418
sS'N'
F0.0014984391259105099
sS'Q'
F0.00026014568158168571
sS'P'
F0.0017585848074921958
sS'S'
F0.0041623309053069714
sS'R'
F0.00026014568158168571
sS'U'
F0
sS'T'
F0.0017585848074921958
sS'W'
F0.0017585848074921958
sS'V'
F0.0093652445369406864
sS'Y'
F0.010000000000000002
sS'X'
F0
sS'Z'
F0
ssI2
(dp114
S'-'
F0
sS'A'
F0.00084287200832466186
sS'C'
F0.00016649323621227888
sS'B'
F0
sS'E'
F1.040582726326743e-05
sS'D'
F0.00016649323621227888
sS'G'
F9.3652445369406872e-05
sS'F'
F0.01133194588969823
sS'I'
F0.0055046826222684697
sS'H'
F0.0026638917793964621
sS'K'
F9.3652445369406872e-05
sS'M'
F0.0017585848074921958
sS'L'
F0.01348595213319459
sS'N'
F0.00037460978147762749
sS'Q'
F4.1623309053069721e-05
sS'P'
F4.1623309053069721e-05
sS'S'
F0.0059937565036420398
sS'R'
F0.00016649323621227888
sS'U'
F0
sS'T'
F0.0014984391259105099
sS'W'
F0.001259105098855359
sS'V'
F0.01133194588969823
sS'Y'
F0.052455775234131113
sS'X'
F0
sS'Z'
F0
ssI3
(dp115
S'-'
F0
sS'A'
F0.0045889698231009373
sS'C'
F4.1623309053069721e-05
sS'B'
F0
sS'E'
F0.00026014568158168571
sS'D'
F0.00084287200832466186
sS'G'
F0.0026638917793964621
sS'F'
F0.0033714880332986474
sS'I'
F0.0070343392299687833
sS'H'
F0.00084287200832466186
sS'K'
F0.00066597294484911553
sS'M'
F0.00050988553590010398
sS'L'
F0.015026014568158167
sS'N'
F0.0037565036420395418
sS'Q'
F0.0010405827263267429
sS'P'
F4.1623309053069721e-05
sS'S'
F0.0037565036420395418
sS'R'
F0.0017585848074921958
sS'U'
F0
sS'T'
F0.019240374609781476
sS'W'
F0.00026014568158168571
sS'V'
F0.01348595213319459
sS'Y'
F0.00016649323621227888
sS'X'
F0
sS'Z'
F0
ssI4
(dp116
S'-'
F0.96166493236212269
sS'A'
F0
sS'C'
F0
sS'B'
F0
sS'E'
F0
sS'D'
F0
sS'G'
F0
sS'F'
F1.040582726326743e-05
sS'I'
F0
sS'H'
F0
sS'K'
F0
sS'M'
F1.040582726326743e-05
sS'L'
F0
sS'N'
F0
sS'Q'
F0
sS'P'
F0
sS'S'
F0
sS'R'
F0
sS'U'
F0
sS'T'
F0
sS'W'
F0
sS'V'
F0.00016649323621227888
sS'Y'
F0
sS'X'
F0
sS'Z'
F0
ssI5
(dp117
S'-'
F0
sS'A'
F0.0081581685744016638
sS'C'
F0.00016649323621227888
sS'B'
F0
sS'E'
F4.1623309053069721e-05
sS'D'
F0
sS'G'
F0.00026014568158168571
sS'F'
F0.0081581685744016638
sS'I'
F0.030343392299687827
sS'H'
F0.00016649323621227888
sS'K'
F9.3652445369406872e-05
sS'M'
F0.001259105098855359
sS'L'
F0.041300728407908424
sS'N'
F1.040582726326743e-05
sS'Q'
F0.00066597294484911553
sS'P'
F9.3652445369406872e-05
sS'S'
F0.00037460978147762749
sS'R'
F9.3652445369406872e-05
sS'U'
F0
sS'T'
F0.0030072840790842876
sS'W'
F0.0020395421436004159
sS'V'
F0.017492195629552551
sS'Y'
F0.0023413111342351716
sS'X'
F0
sS'Z'
F0
ssI6
(dp118
S'-'
F0
sS'A'
F0.0050364203954214358
sS'C'
F0.0030072840790842876
sS'B'
F0
sS'E'
F0.00037460978147762749
sS'D'
F0
sS'G'
F0.001259105098855359
sS'F'
F0.0093652445369406864
sS'I'
F0.0087513007284079087
sS'H'
F0
sS'K'
F0.00016649323621227888
sS'M'
F0.0014984391259105099
sS'L'
F0.026014568158168574
sS'N'
F4.1623309053069721e-05
sS'Q'
F0.00050988553590010398
sS'P'
F4.1623309053069721e-05
sS'S'
F0.0055046826222684697
sS'R'
F1.040582726326743e-05
sS'U'
F0
sS'T'
F0.01133194588969823
sS'W'
F0.00026014568158168571
sS'V'
F0.01133194588969823
sS'Y'
F0.0055046826222684697
sS'X'
F0
sS'Z'
F0
ssI7
(dp119
S'-'
F0
sS'A'
F0.0023413111342351716
sS'C'
F0.00066597294484911553
sS'B'
F0
sS'E'
F0.0010405827263267429
sS'D'
F0.00016649323621227888
sS'G'
F0.00037460978147762749
sS'F'
F0.0087513007284079087
sS'I'
F0.0033714880332986474
sS'H'
F0.00066597294484911553
sS'K'
F0.00050988553590010398
sS'M'
F0.0010405827263267429
sS'L'
F0.037460978147762745
sS'N'
F0.001259105098855359
sS'Q'
F0.00084287200832466186
sS'P'
F9.3652445369406872e-05
sS'S'
F0.01133194588969823
sS'R'
F0.0020395421436004159
sS'U'
F0
sS'T'
F0.010655567117585849
sS'W'
F0.00037460978147762749
sS'V'
F0.0045889698231009373
sS'Y'
F0.00037460978147762749
sS'X'
F0
sS'Z'
F0
ssI8
(dp120
S'-'
F0
sS'A'
F0.015026014568158167
sS'C'
F0.0010405827263267429
sS'B'
F0
sS'E'
F0.00050988553590010398
sS'D'
F0.00016649323621227888
sS'G'
F0.00066597294484911553
sS'F'
F0.029229968782518208
sS'I'
F0.0014984391259105099
sS'H'
F0.00016649323621227888
sS'K'
F1.040582726326743e-05
sS'M'
F0.00016649323621227888
sS'L'
F0.019240374609781476
sS'N'
F0.0023413111342351716
sS'Q'
F0.00066597294484911553
sS'P'
F9.3652445369406872e-05
sS'S'
F0.01202913631633715
sS'R'
F4.1623309053069721e-05
sS'U'
F0
sS'T'
F0.010000000000000002
sS'W'
F1.040582726326743e-05
sS'V'
F0.0093652445369406864
sS'Y'
F4.1623309053069721e-05
sS'X'
F0
sS'Z'
F0
ssI9
(dp121
S'-'
F0
sS'A'
F0.0030072840790842876
sS'C'
F0.001259105098855359
sS'B'
F0
sS'E'
F1.040582726326743e-05
sS'D'
F1.040582726326743e-05
sS'G'
F0.001259105098855359
sS'F'
F0.0093652445369406864
sS'I'
F0.026014568158168574
sS'H'
F1.040582726326743e-05
sS'K'
F0
sS'M'
F0.00084287200832466186
sS'L'
F0.053943808532778359
sS'N'
F0.00066597294484911553
sS'Q'
F0
sS'P'
F9.3652445369406872e-05
sS'S'
F0.0014984391259105099
sS'R'
F9.3652445369406872e-05
sS'U'
F0
sS'T'
F0.0055046826222684697
sS'W'
F0.00026014568158168571
sS'V'
F0.028137356919875133
sS'Y'
F1.040582726326743e-05
sS'X'
F0
sS'Z'
F0
ssI10
(dp122
S'-'
F0.96800208116545272
sS'A'
F1.040582726326743e-05
sS'C'
F1.040582726326743e-05
sS'B'
F0
sS'E'
F0
sS'D'
F0
sS'G'
F1.040582726326743e-05
sS'F'
F0
sS'I'
F0
sS'H'
F0
sS'K'
F0
sS'M'
F0
sS'L'
F0
sS'N'
F0
sS'Q'
F0
sS'P'
F0
sS'S'
F0
sS'R'
F0
sS'U'
F0
sS'T'
F1.040582726326743e-05
sS'W'
F0
sS'V'
F1.040582726326743e-05
sS'Y'
F0
sS'X'
F0
sS'Z'
F0
ssI11
(dp123
S'-'
F0
sS'A'
F0.0045889698231009373
sS'C'
F0.0033714880332986474
sS'B'
F0
sS'E'
F0.00037460978147762749
sS'D'
F4.1623309053069721e-05
sS'G'
F0.0037565036420395418
sS'F'
F0.01133194588969823
sS'I'
F0.0055046826222684697
sS'H'
F0.00026014568158168571
sS'K'
F0
sS'M'
F0.001259105098855359
sS'L'
F0.078761706555671177
sS'N'
F1.040582726326743e-05
sS'Q'
F0
sS'P'
F4.1623309053069721e-05
sS'S'
F0.001259105098855359
sS'R'
F1.040582726326743e-05
sS'U'
F0
sS'T'
F0.0020395421436004159
sS'W'
F0.00037460978147762749
sS'V'
F0.022018730489073879
sS'Y'
F0.00016649323621227888
sS'X'
F0
sS'Z'
F0
ssI12
(dp124
S'-'
F0.10614984391259105
sS'A'
F0.010000000000000002
sS'C'
F0.00026014568158168571
sS'B'
F0
sS'E'
F0.00016649323621227888
sS'D'
F0
sS'G'
F0.061696149843912591
sS'F'
F0.00066597294484911553
sS'I'
F0.00026014568158168571
sS'H'
F1.040582726326743e-05
sS'K'
F0
sS'M'
F4.1623309053069721e-05
sS'L'
F0.0023413111342351716
sS'N'
F4.1623309053069721e-05
sS'Q'
F0.00016649323621227888
sS'P'
F0
sS'S'
F0.0075858480749219567
sS'R'
F0
sS'U'
F0
sS'T'
F0.0017585848074921958
sS'W'
F4.1623309053069721e-05
sS'V'
F0.00084287200832466186
sS'Y'
F0.00016649323621227888
sS'X'
F0
sS'Z'
F0
ssI13
(dp125
S'-'
F0
sS'A'
F0.00037460978147762749
sS'C'
F0.00026014568158168571
sS'B'
F0
sS'E'
F4.1623309053069721e-05
sS'D'
F4.1623309053069721e-05
sS'G'
F0.00016649323621227888
sS'F'
F0.35999999999999999
sS'I'
F0.0010405827263267429
sS'H'
F1.040582726326743e-05
sS'K'
F1.040582726326743e-05
sS'M'
F1.040582726326743e-05
sS'L'
F0.0045889698231009373
sS'N'
F0.0023413111342351716
sS'Q'
F0
sS'P'
F0
sS'S'
F0.00066597294484911553
sS'R'
F0
sS'U'
F0
sS'T'
F0.00026014568158168571
sS'W'
F4.1623309053069721e-05
sS'V'
F0.0010405827263267429
sS'Y'
F0.010000000000000002
sS'X'
F0
sS'Z'
F0
ssI14
(dp126
S'-'
F0
sS'A'
F0.001259105098855359
sS'C'
F0.0010405827263267429
sS'B'
F0
sS'E'
F0
sS'D'
F0
sS'G'
F0.00026014568158168571
sS'F'
F0.040000000000000008
sS'I'
F0.0065036420395421434
sS'H'
F4.1623309053069721e-05
sS'K'
F0
sS'M'
F9.3652445369406872e-05
sS'L'
F0.086170655567117574
sS'N'
F0
sS'Q'
F1.040582726326743e-05
sS'P'
F1.040582726326743e-05
sS'S'
F0.00066597294484911553
sS'R'
F0
sS'U'
F0
sS'T'
F0.00066597294484911553
sS'W'
F0.00016649323621227888
sS'V'
F0.024984391259105093
sS'Y'
F0.0093652445369406864
sS'X'
F0
sS'Z'
F0
ssI15
(dp127
S'-'
F0
sS'A'
F0.0050364203954214358
sS'C'
F1.040582726326743e-05
sS'B'
F0
sS'E'
F0
sS'D'
F0
sS'G'
F0.00084287200832466186
sS'F'
F0.0037565036420395418
sS'I'
F0.035005202913631635
sS'H'
F0
sS'K'
F0
sS'M'
F0.0010405827263267429
sS'L'
F0.14244536940686786
sS'N'
F1.040582726326743e-05
sS'Q'
F1.040582726326743e-05
sS'P'
F0.00016649323621227888
sS'S'
F1.040582726326743e-05
sS'R'
F0
sS'U'
F0
sS'T'
F0.0017585848074921958
sS'W'
F1.040582726326743e-05
sS'V'
F0.028137356919875133
sS'Y'
F1.040582726326743e-05
sS'X'
F0
sS'Z'
F0
ssI16
(dp128
S'-'
F0
sS'A'
F0.00084287200832466186
sS'C'
F0.00037460978147762749
sS'B'
F0
sS'E'
F0
sS'D'
F0
sS'G'
F4.1623309053069721e-05
sS'F'
F9.3652445369406872e-05
sS'I'
F1.040582726326743e-05
sS'H'
F0
sS'K'
F0
sS'M'
F0.00066597294484911553
sS'L'
F0.00026014568158168571
sS'N'
F1.040582726326743e-05
sS'Q'
F1.040582726326743e-05
sS'P'
F0.68729448491155043
sS'S'
F0.00016649323621227888
sS'R'
F0
sS'U'
F0
sS'T'
F4.1623309053069721e-05
sS'W'
F0
sS'V'
F0.0010405827263267429
sS'Y'
F1.040582726326743e-05
sS'X'
F0
sS'Z'
F0
ssI17
(dp129
S'-'
F0
sS'A'
F0.00084287200832466186
sS'C'
F0.00084287200832466186
sS'B'
F0
sS'E'
F0
sS'D'
F0
sS'G'
F0.0026638917793964621
sS'F'
F0.043964620187304897
sS'I'
F0.00026014568158168571
sS'H'
F4.1623309053069721e-05
sS'K'
F0
sS'M'
F0.0026638917793964621
sS'L'
F0.18406867845993755
sS'N'
F4.1623309053069721e-05
sS'Q'
F1.040582726326743e-05
sS'P'
F0
sS'S'
F0.00026014568158168571
sS'R'
F1.040582726326743e-05
sS'U'
F0
sS'T'
F0.001259105098855359
sS'W'
F1.040582726326743e-05
sS'V'
F0.01202913631633715
sS'Y'
F0
sS'X'
F0
sS'Z'
F0
ssI18
(dp130
S'-'
F0
sS'A'
F0.018355879292403749
sS'C'
F0.00084287200832466186
sS'B'
F0
sS'E'
F0
sS'D'
F0
sS'G'
F0.0059937565036420398
sS'F'
F0.0014984391259105099
sS'I'
F0.01133194588969823
sS'H'
F0
sS'K'
F0
sS'M'
F0.00037460978147762749
sS'L'
F0.069968782518210204
sS'N'
F0
sS'Q'
F0
sS'P'
F9.3652445369406872e-05
sS'S'
F0.0045889698231009373
sS'R'
F1.040582726326743e-05
sS'U'
F0
sS'T'
F0.0075858480749219567
sS'W'
F0
sS'V'
F0.022018730489073879
sS'Y'
F0.00016649323621227888
sS'X'
F0
sS'Z'
F0
ssI19
(dp131
S'-'
F0
sS'A'
F0.0059937565036420398
sS'C'
F0.00016649323621227888
sS'B'
F0
sS'E'
F0
sS'D'
F1.040582726326743e-05
sS'G'
F9.3652445369406872e-05
sS'F'
F0.001259105098855359
sS'I'
F0.091945889698231004
sS'H'
F1.040582726326743e-05
sS'K'
F0
sS'M'
F0.00037460978147762749
sS'L'
F0.050988553590010401
sS'N'
F0
sS'Q'
F0
sS'P'
F1.040582726326743e-05
sS'S'
F0.00084287200832466186
sS'R'
F0
sS'U'
F0
sS'T'
F0.0014984391259105099
sS'W'
F0
sS'V'
F0.056982310093652448
sS'Y'
F0
sS'X'
F0
sS'Z'
F0
ssI20
(dp132
S'-'
F0
sS'A'
F0.00016649323621227888
sS'C'
F0.00066597294484911553
sS'B'
F0
sS'E'
F1.040582726326743e-05
sS'D'
F0
sS'G'
F9.3652445369406872e-05
sS'F'
F0.0023413111342351716
sS'I'
F0.080582726326742973
sS'H'
F0
sS'K'
F0.00016649323621227888
sS'M'
F0.078761706555671177
sS'L'
F0.0087513007284079087
sS'N'
F0.00016649323621227888
sS'Q'
F4.1623309053069721e-05
sS'P'
F0
sS'S'
F0.00066597294484911553
sS'R'
F4.1623309053069721e-05
sS'U'
F0
sS'T'
F0.0070343392299687833
sS'W'
F1.040582726326743e-05
sS'V'
F0.0059937565036420398
sS'Y'
F0.00016649323621227888
sS'X'
F0
sS'Z'
F0
ssI21
(dp133
S'-'
F0
sS'A'
F0.0087513007284079087
sS'C'
F0.0045889698231009373
sS'B'
F0
sS'E'
F4.1623309053069721e-05
sS'D'
F1.040582726326743e-05
sS'G'
F0.0055046826222684697
sS'F'
F0.0010405827263267429
sS'I'
F0.0127471383975026
sS'H'
F1.040582726326743e-05
sS'K'
F1.040582726326743e-05
sS'M'
F9.3652445369406872e-05
sS'L'
F0.075182101977107174
sS'N'
F0
sS'Q'
F4.1623309053069721e-05
sS'P'
F1.040582726326743e-05
sS'S'
F0.0059937565036420398
sS'R'
F1.040582726326743e-05
sS'U'
F0
sS'T'
F0.0075858480749219567
sS'W'
F0
sS'V'
F0.020145681581685743
sS'Y'
F0
sS'X'
F0
sS'Z'
F0
ssI22
(dp134
S'-'
F0
sS'A'
F0.0087513007284079087
sS'C'
F0.0010405827263267429
sS'B'
F0
sS'E'
F0
sS'D'
F1.040582726326743e-05
sS'G'
F0.00084287200832466186
sS'F'
F0.023975026014568159
sS'I'
F0.021071800208116546
sS'H'
F4.1623309053069721e-05
sS'K'
F9.3652445369406872e-05
sS'M'
F4.1623309053069721e-05
sS'L'
F0.018355879292403749
sS'N'
F1.040582726326743e-05
sS'Q'
F4.1623309053069721e-05
sS'P'
F0
sS'S'
F0.0030072840790842876
sS'R'
F1.040582726326743e-05
sS'U'
F0
sS'T'
F0.0030072840790842876
sS'W'
F9.3652445369406872e-05
sS'V'
F0.03622268470343392
sS'Y'
F0.0037565036420395418
sS'X'
F0
sS'Z'
F0
ssI23
(dp135
S'-'
F0
sS'A'
F0.0059937565036420398
sS'C'
F0.1352341311134235
sS'B'
F0
sS'E'
F0
sS'D'
F1.040582726326743e-05
sS'G'
F1.040582726326743e-05
sS'F'
F0.0037565036420395418
sS'I'
F0.0010405827263267429
sS'H'
F0
sS'K'
F1.040582726326743e-05
sS'M'
F0.0010405827263267429
sS'L'
F0.021071800208116546
sS'N'
F1.040582726326743e-05
sS'Q'
F0
sS'P'
F1.040582726326743e-05
sS'S'
F0.020145681581685743
sS'R'
F0
sS'U'
F0
sS'T'
F0.0033714880332986474
sS'W'
F0
sS'V'
F0.0033714880332986474
sS'Y'
F9.3652445369406872e-05
sS'X'
F0
sS'Z'
F0
ssI24
(dp136
S'-'
F0
sS'A'
F0.001259105098855359
sS'C'
F0.00016649323621227888
sS'B'
F0
sS'E'
F0
sS'D'
F0
sS'G'
F1.040582726326743e-05
sS'F'
F0.0020395421436004159
sS'I'
F0.00016649323621227888
sS'H'
F0.00026014568158168571
sS'K'
F0
sS'M'
F4.1623309053069721e-05
sS'L'
F0.0030072840790842876
sS'N'
F0.0030072840790842876
sS'Q'
F9.3652445369406872e-05
sS'P'
F0
sS'S'
F0.0017585848074921958
sS'R'
F0
sS'U'
F0
sS'T'
F0.00066597294484911553
sS'W'
F0
sS'V'
F0.00016649323621227888
sS'Y'
F0.44587929240374607
sS'X'
F0
sS'Z'
F0
ssI25
(dp137
S'-'
F0
sS'A'
F0.0065036420395421434
sS'C'
F0.0030072840790842876
sS'B'
F0
sS'E'
F4.1623309053069721e-05
sS'D'
F0
sS'G'
F0.015026014568158167
sS'F'
F0.0045889698231009373
sS'I'
F0.0037565036420395418
sS'H'
F4.1623309053069721e-05
sS'K'
F0
sS'M'
F0.00084287200832466186
sS'L'
F0.024984391259105093
sS'N'
F4.1623309053069721e-05
sS'Q'
F4.1623309053069721e-05
sS'P'
F0
sS'S'
F0.0127471383975026
sS'R'
F0.00016649323621227888
sS'U'
F0
sS'T'
F0.0093652445369406864
sS'W'
F0.00066597294484911553
sS'V'
F0.010000000000000002
sS'Y'
F0.0026638917793964621
sS'X'
F0
sS'Z'
F0
ssI26
(dp138
S'-'
F0
sS'A'
F0.0020395421436004159
sS'C'
F0.00050988553590010398
sS'B'
F0
sS'E'
F9.3652445369406872e-05
sS'D'
F0.00016649323621227888
sS'G'
F0.0020395421436004159
sS'F'
F0.0037565036420395418
sS'I'
F0.00084287200832466186
sS'H'
F0.0023413111342351716
sS'K'
F0.010000000000000002
sS'M'
F0.00066597294484911553
sS'L'
F0.05545265348595213
sS'N'
F0.00026014568158168571
sS'Q'
F0.0020395421436004159
sS'P'
F1.040582726326743e-05
sS'S'
F0.00066597294484911553
sS'R'
F0.035005202913631635
sS'U'
F0
sS'T'
F0.00026014568158168571
sS'W'
F0.00016649323621227888
sS'V'
F0.0030072840790842876
sS'Y'
F1.040582726326743e-05
sS'X'
F0
sS'Z'
F0
ssI27
(dp139
S'-'
F0
sS'A'
F0.00026014568158168571
sS'C'
F4.1623309053069721e-05
sS'B'
F0
sS'E'
F1.040582726326743e-05
sS'D'
F1.040582726326743e-05
sS'G'
F4.1623309053069721e-05
sS'F'
F0.00016649323621227888
sS'I'
F0.2532362122788761
sS'H'
F1.040582726326743e-05
sS'K'
F1.040582726326743e-05
sS'M'
F0.0045889698231009373
sS'L'
F0.030343392299687827
sS'N'
F1.040582726326743e-05
sS'Q'
F1.040582726326743e-05
sS'P'
F1.040582726326743e-05
sS'S'
F1.040582726326743e-05
sS'R'
F4.1623309053069721e-05
sS'U'
F0
sS'T'
F0.0045889698231009373
sS'W'
F0
sS'V'
F0.0127471383975026
sS'Y'
F0
sS'X'
F0
sS'Z'
F0
ssI28
(dp140
S'-'
F0.00037460978147762749
sS'A'
F0.0087513007284079087
sS'C'
F0.00066597294484911553
sS'B'
F0
sS'E'
F1.040582726326743e-05
sS'D'
F1.040582726326743e-05
sS'G'
F0.0023413111342351716
sS'F'
F0.0127471383975026
sS'I'
F0.040000000000000008
sS'H'
F4.1623309053069721e-05
sS'K'
F4.1623309053069721e-05
sS'M'
F0.00026014568158168571
sS'L'
F0.015827263267429757
sS'N'
F0
sS'Q'
F1.040582726326743e-05
sS'P'
F4.1623309053069721e-05
sS'S'
F0.0030072840790842876
sS'R'
F0.00037460978147762749
sS'U'
F0
sS'T'
F0.0010405827263267429
sS'W'
F0.00066597294484911553
sS'V'
F0.0087513007284079087
sS'Y'
F0.010655567117585849
sS'X'
F0
sS'Z'
F0
ssI29
(dp141
S'-'
F0.00037460978147762749
sS'A'
F0.0017585848074921958
sS'C'
F0.0037565036420395418
sS'B'
F0
sS'E'
F0
sS'D'
F0
sS'G'
F0.00026014568158168571
sS'F'
F0.0026638917793964621
sS'I'
F0.0033714880332986474
sS'H'
F0.0014984391259105099
sS'K'
F0.0093652445369406864
sS'M'
F0
sS'L'
F0.015827263267429757
sS'N'
F0.00037460978147762749
sS'Q'
F0.0017585848074921958
sS'P'
F0
sS'S'
F0.00084287200832466186
sS'R'
F0.069968782518210204
sS'U'
F0
sS'T'
F0.00026014568158168571
sS'W'
F0.0010405827263267429
sS'V'
F0.0037565036420395418
sS'Y'
F0.00066597294484911553
sS'X'
F0
sS'Z'
F0
ssI30
(dp142
S'-'
F0.015026014568158167
sS'A'
F0.0087513007284079087
sS'C'
F4.1623309053069721e-05
sS'B'
F0
sS'E'
F0.0030072840790842876
sS'D'
F0
sS'G'
F0.00037460978147762749
sS'F'
F0.001259105098855359
sS'I'
F0.0033714880332986474
sS'H'
F0.00037460978147762749
sS'K'
F0.0081581685744016638
sS'M'
F9.3652445369406872e-05
sS'L'
F0.0010405827263267429
sS'N'
F0.00050988553590010398
sS'Q'
F4.1623309053069721e-05
sS'P'
F0
sS'S'
F0.010000000000000002
sS'R'
F0.0050364203954214358
sS'U'
F0
sS'T'
F0.017492195629552551
sS'W'
F0
sS'V'
F0.0093652445369406864
sS'Y'
F0.00084287200832466186
sS'X'
F0
sS'Z'
F0
sssI6
(dp143
I0
(dp144
S'-'
F0.041300728407908424
sS'A'
F0.01202913631633715
sS'C'
F9.3652445369406872e-05
sS'B'
F0
sS'E'
F0.001259105098855359
sS'D'
F4.1623309053069721e-05
sS'G'
F0.00026014568158168571
sS'F'
F9.3652445369406872e-05
sS'I'
F1.040582726326743e-05
sS'H'
F0.00050988553590010398
sS'K'
F0.01202913631633715
sS'M'
F4.1623309053069721e-05
sS'L'
F0.00050988553590010398
sS'N'
F0.0010405827263267429
sS'Q'
F0.0026638917793964621
sS'P'
F0.0045889698231009373
sS'S'
F0.0065036420395421434
sS'R'
F0.021071800208116546
sS'U'
F0
sS'T'
F0.001259105098855359
sS'W'
F4.1623309053069721e-05
sS'V'
F0.00037460978147762749
sS'Y'
F4.1623309053069721e-05
sS'X'
F0
sS'Z'
F0
ssI1
(dp145
S'-'
F0.053943808532778359
sS'A'
F0.00026014568158168571
sS'C'
F9.3652445369406872e-05
sS'B'
F0
sS'E'
F0.030343392299687827
sS'D'
F0.0033714880332986474
sS'G'
F0.00026014568158168571
sS'F'
F1.040582726326743e-05
sS'I'
F9.3652445369406872e-05
sS'H'
F4.1623309053069721e-05
sS'K'
F0.01348595213319459
sS'M'
F0.00016649323621227888
sS'L'
F0.0010405827263267429
sS'N'
F0.00016649323621227888
sS'Q'
F0.00066597294484911553
sS'P'
F9.3652445369406872e-05
sS'S'
F0.0050364203954214358
sS'R'
F0.018355879292403749
sS'U'
F0
sS'T'
F0.0014984391259105099
sS'W'
F0
sS'V'
F0.00016649323621227888
sS'Y'
F4.1623309053069721e-05
sS'X'
F0
sS'Z'
F0
ssI2
(dp146
S'-'
F0.010000000000000002
sS'A'
F0.001259105098855359
sS'C'
F9.3652445369406872e-05
sS'B'
F0
sS'E'
F1.040582726326743e-05
sS'D'
F9.3652445369406872e-05
sS'G'
F0.00050988553590010398
sS'F'
F0.00026014568158168571
sS'I'
F0.00050988553590010398
sS'H'
F0.0020395421436004159
sS'K'
F0.028137356919875133
sS'M'
F0.0020395421436004159
sS'L'
F0.0023413111342351716
sS'N'
F9.3652445369406872e-05
sS'Q'
F0.0020395421436004159
sS'P'
F4.1623309053069721e-05
sS'S'
F0.0030072840790842876
sS'R'
F0.03622268470343392
sS'U'
F0
sS'T'
F0.0127471383975026
sS'W'
F1.040582726326743e-05
sS'V'
F0.0017585848074921958
sS'Y'
F9.3652445369406872e-05
sS'X'
F0
sS'Z'
F0
ssI3
(dp147
S'-'
F0.00037460978147762749
sS'A'
F0.00084287200832466186
sS'C'
F0
sS'B'
F0
sS'E'
F0.0045889698231009373
sS'D'
F0.00016649323621227888
sS'G'
F0.00037460978147762749
sS'F'
F0
sS'I'
F1.040582726326743e-05
sS'H'
F9.3652445369406872e-05
sS'K'
F0.1652029136316337
sS'M'
F1.040582726326743e-05
sS'L'
F0.00037460978147762749
sS'N'
F1.040582726326743e-05
sS'Q'
F0.0030072840790842876
sS'P'
F0
sS'S'
F0.001259105098855359
sS'R'
F0.084287200832466186
sS'U'
F0
sS'T'
F9.3652445369406872e-05
sS'W'
F4.1623309053069721e-05
sS'V'
F9.3652445369406872e-05
sS'Y'
F0
sS'X'
F0
sS'Z'
F0
ssI4
(dp148
S'-'
F0.00037460978147762749
sS'A'
F0.097908428720083263
sS'C'
F4.1623309053069721e-05
sS'B'
F0
sS'E'
F0
sS'D'
F0
sS'G'
F0.0010405827263267429
sS'F'
F0.00066597294484911553
sS'I'
F0.0037565036420395418
sS'H'
F0.00037460978147762749
sS'K'
F0.0014984391259105099
sS'M'
F0.00084287200832466186
sS'L'
F0.010000000000000002
sS'N'
F4.1623309053069721e-05
sS'Q'
F1.040582726326743e-05
sS'P'
F0.00050988553590010398
sS'S'
F0.0010405827263267429
sS'R'
F0.00050988553590010398
sS'U'
F0
sS'T'
F0.0087513007284079087
sS'W'
F1.040582726326743e-05
sS'V'
F0.027065556711758587
sS'Y'
F4.1623309053069721e-05
sS'X'
F0
sS'Z'
F0
ssI5
(dp149
S'-'
F0.00037460978147762749
sS'A'
F0.048116545265348601
sS'C'
F9.3652445369406872e-05
sS'B'
F0
sS'E'
F0
sS'D'
F0
sS'G'
F0.00026014568158168571
sS'F'
F0.0026638917793964621
sS'I'
F0.0037565036420395418
sS'H'
F0.0055046826222684697
sS'K'
F0.00026014568158168571
sS'M'
F0.00066597294484911553
sS'L'
F0.015827263267429757
sS'N'
F0.00037460978147762749
sS'Q'
F0.00016649323621227888
sS'P'
F0.00026014568158168571
sS'S'
F0.0010405827263267429
sS'R'
F0.00016649323621227888
sS'U'
F0
sS'T'
F0.019240374609781476
sS'W'
F0
sS'V'
F0.015026014568158167
sS'Y'
F0.00066597294484911553
sS'X'
F0
sS'Z'
F0
ssI6
(dp150
S'-'
F0
sS'A'
F0.0014984391259105099
sS'C'
F9.3652445369406872e-05
sS'B'
F0
sS'E'
F1.040582726326743e-05
sS'D'
F0
sS'G'
F0.00066597294484911553
sS'F'
F0.00026014568158168571
sS'I'
F0.0093652445369406864
sS'H'
F0.00016649323621227888
sS'K'
F0.089999999999999997
sS'M'
F0.00016649323621227888
sS'L'
F0.0050364203954214358
sS'N'
F0.00026014568158168571
sS'Q'
F0.00050988553590010398
sS'P'
F1.040582726326743e-05
sS'S'
F9.3652445369406872e-05
sS'R'
F0.060104058272632668
sS'U'
F0
sS'T'
F0.00084287200832466186
sS'W'
F1.040582726326743e-05
sS'V'
F0.0059937565036420398
sS'Y'
F4.1623309053069721e-05
sS'X'
F0
sS'Z'
F0
ssI7
(dp151
S'-'
F0
sS'A'
F9.3652445369406872e-05
sS'C'
F0
sS'B'
F0
sS'E'
F0
sS'D'
F0
sS'G'
F0.00037460978147762749
sS'F'
F0.00050988553590010398
sS'I'
F0.0020395421436004159
sS'H'
F0.00016649323621227888
sS'K'
F0.0033714880332986474
sS'M'
F0.027065556711758587
sS'L'
F0.018355879292403749
sS'N'
F0.00016649323621227888
sS'Q'
F0.00037460978147762749
sS'P'
F1.040582726326743e-05
sS'S'
F0.0017585848074921958
sS'R'
F0.0041623309053069714
sS'U'
F0
sS'T'
F0.058532778355879299
sS'W'
F4.1623309053069721e-05
sS'V'
F0.017492195629552551
sS'Y'
F9.3652445369406872e-05
sS'X'
F0
sS'Z'
F0
ssI8
(dp152
S'-'
F0
sS'A'
F0.01348595213319459
sS'C'
F9.3652445369406872e-05
sS'B'
F0
sS'E'
F0
sS'D'
F0
sS'G'
F4.1623309053069721e-05
sS'F'
F0.00037460978147762749
sS'I'
F0.026014568158168574
sS'H'
F0
sS'K'
F4.1623309053069721e-05
sS'M'
F0.0037565036420395418
sS'L'
F0.12137356919875131
sS'N'
F4.1623309053069721e-05
sS'Q'
F0
sS'P'
F1.040582726326743e-05
sS'S'
F0.00037460978147762749
sS'R'
F0
sS'U'
F0
sS'T'
F0.001259105098855359
sS'W'
F1.040582726326743e-05
sS'V'
F0.041300728407908424
sS'Y'
F0
sS'X'
F0
sS'Z'
F0
ssI9
(dp153
S'-'
F0
sS'A'
F0.017492195629552551
sS'C'
F4.1623309053069721e-05
sS'B'
F0
sS'E'
F0
sS'D'
F0
sS'G'
F0.0070343392299687833
sS'F'
F0.01348595213319459
sS'I'
F0.0093652445369406864
sS'H'
F0
sS'K'
F0
sS'M'
F0.0037565036420395418
sS'L'
F0.061696149843912591
sS'N'
F0
sS'Q'
F4.1623309053069721e-05
sS'P'
F1.040582726326743e-05
sS'S'
F0.0023413111342351716
sS'R'
F0.00026014568158168571
sS'U'
F0
sS'T'
F0.0017585848074921958
sS'W'
F1.040582726326743e-05
sS'V'
F0.015827263267429757
sS'Y'
F9.3652445369406872e-05
sS'X'
F0
sS'Z'
F0
ssI10
(dp154
S'-'
F0
sS'A'
F0.035005202913631635
sS'C'
F0.00037460978147762749
sS'B'
F0
sS'E'
F0
sS'D'
F0
sS'G'
F0.00066597294484911553
sS'F'
F0.0010405827263267429
sS'I'
F0.041300728407908424
sS'H'
F0
sS'K'
F0.0020395421436004159
sS'M'
F0.0010405827263267429
sS'L'
F0.016649323621227886
sS'N'
F1.040582726326743e-05
sS'Q'
F0.00050988553590010398
sS'P'
F0
sS'S'
F0.00050988553590010398
sS'R'
F0.00026014568158168571
sS'U'
F0
sS'T'
F0.0030072840790842876
sS'W'
F4.1623309053069721e-05
sS'V'
F0.040000000000000008
sS'Y'
F0
sS'X'
F0
sS'Z'
F0
ssI11
(dp155
S'-'
F0
sS'A'
F0.0014984391259105099
sS'C'
F4.1623309053069721e-05
sS'B'
F0
sS'E'
F0
sS'D'
F0
sS'G'
F9.3652445369406872e-05
sS'F'
F0.00037460978147762749
sS'I'
F0.075182101977107174
sS'H'
F4.1623309053069721e-05
sS'K'
F0
sS'M'
F0.0023413111342351716
sS'L'
F0.016649323621227886
sS'N'
F4.1623309053069721e-05
sS'Q'
F0
sS'P'
F0
sS'S'
F0.0014984391259105099
sS'R'
F0
sS'U'
F0
sS'T'
F0.0055046826222684697
sS'W'
F0
sS'V'
F0.11691987513007283
sS'Y'
F4.1623309053069721e-05
sS'X'
F0
sS'Z'
F0
ssI12
(dp156
S'-'
F0
sS'A'
F0.0033714880332986474
sS'C'
F9.3652445369406872e-05
sS'B'
F0
sS'E'
F1.040582726326743e-05
sS'D'
F0
sS'G'
F4.1623309053069721e-05
sS'F'
F0.0010405827263267429
sS'I'
F0.0127471383975026
sS'H'
F0
sS'K'
F0
sS'M'
F0.0075858480749219567
sS'L'
F0.048116545265348601
sS'N'
F0
sS'Q'
F1.040582726326743e-05
sS'P'
F0
sS'S'
F4.1623309053069721e-05
sS'R'
F0
sS'U'
F0
sS'T'
F0.0030072840790842876
sS'W'
F0
sS'V'
F0.1652029136316337
sS'Y'
F0
sS'X'
F0
sS'Z'
F0
ssI13
(dp157
S'-'
F0
sS'A'
F0.0127471383975026
sS'C'
F0.00026014568158168571
sS'B'
F0
sS'E'
F0
sS'D'
F0
sS'G'
F0.031477627471383982
sS'F'
F0.0037565036420395418
sS'I'
F0.01133194588969823
sS'H'
F0
sS'K'
F0
sS'M'
F0.00026014568158168571
sS'L'
F0.052455775234131113
sS'N'
F1.040582726326743e-05
sS'Q'
F0
sS'P'
F1.040582726326743e-05
sS'S'
F0.0023413111342351716
sS'R'
F0
sS'U'
F0
sS'T'
F0.0017585848074921958
sS'W'
F1.040582726326743e-05
sS'V'
F0.032632674297606655
sS'Y'
F0
sS'X'
F0
sS'Z'
F0
ssI14
(dp158
S'-'
F0
sS'A'
F0.048116545265348601
sS'C'
F0.00050988553590010398
sS'B'
F0
sS'E'
F0
sS'D'
F0
sS'G'
F0.00016649323621227888
sS'F'
F0.00037460978147762749
sS'I'
F0.0045889698231009373
sS'H'
F0
sS'K'
F0
sS'M'
F0.00026014568158168571
sS'L'
F0.016649323621227886
sS'N'
F9.3652445369406872e-05
sS'Q'
F9.3652445369406872e-05
sS'P'
F0
sS'S'
F0.0087513007284079087
sS'R'
F0
sS'U'
F0
sS'T'
F0.0093652445369406864
sS'W'
F0
sS'V'
F0.084287200832466186
sS'Y'
F0.00016649323621227888
sS'X'
F0
sS'Z'
F0
ssI15
(dp159
S'-'
F0
sS'A'
F0.00026014568158168571
sS'C'
F4.1623309053069721e-05
sS'B'
F0
sS'E'
F0
sS'D'
F0.00050988553590010398
sS'G'
F0
sS'F'
F0.56008324661810616
sS'I'
F0.00050988553590010398
sS'H'
F0
sS'K'
F1.040582726326743e-05
sS'M'
F1.040582726326743e-05
sS'L'
F0.0010405827263267429
sS'N'
F4.1623309053069721e-05
sS'Q'
F1.040582726326743e-05
sS'P'
F0
sS'S'
F0.00037460978147762749
sS'R'
F1.040582726326743e-05
sS'U'
F0
sS'T'
F4.1623309053069721e-05
sS'W'
F1.040582726326743e-05
sS'V'
F0.0017585848074921958
sS'Y'
F0.0037565036420395418
sS'X'
F0
sS'Z'
F0
ssI16
(dp160
S'-'
F0
sS'A'
F0.023975026014568159
sS'C'
F0.0010405827263267429
sS'B'
F0
sS'E'
F0
sS'D'
F0
sS'G'
F0.00050988553590010398
sS'F'
F0.03622268470343392
sS'I'
F0.021071800208116546
sS'H'
F0
sS'K'
F0
sS'M'
F4.1623309053069721e-05
sS'L'
F0.058532778355879299
sS'N'
F0
sS'Q'
F0
sS'P'
F0
sS'S'
F0.00016649323621227888
sS'R'
F0
sS'U'
F0
sS'T'
F0.001259105098855359
sS'W'
F1.040582726326743e-05
sS'V'
F0.020145681581685743
sS'Y'
F0.00016649323621227888
sS'X'
F0
sS'Z'
F0
ssI17
(dp161
S'-'
F0.84521331945889688
sS'A'
F0.00050988553590010398
sS'C'
F0
sS'B'
F0
sS'E'
F0
sS'D'
F0
sS'G'
F1.040582726326743e-05
sS'F'
F0.00026014568158168571
sS'I'
F4.1623309053069721e-05
sS'H'
F0
sS'K'
F0
sS'M'
F0
sS'L'
F0.00037460978147762749
sS'N'
F0
sS'Q'
F0
sS'P'
F0
sS'S'
F1.040582726326743e-05
sS'R'
F0
sS'U'
F0
sS'T'
F1.040582726326743e-05
sS'W'
F0
sS'V'
F4.1623309053069721e-05
sS'Y'
F0
sS'X'
F0
sS'Z'
F0
ssI18
(dp162
S'-'
F0
sS'A'
F0.0026638917793964621
sS'C'
F0.00026014568158168571
sS'B'
F0
sS'E'
F0
sS'D'
F4.1623309053069721e-05
sS'G'
F0.00037460978147762749
sS'F'
F0.0023413111342351716
sS'I'
F0.049542143600416241
sS'H'
F0
sS'K'
F0
sS'M'
F0.00026014568158168571
sS'L'
F0.12137356919875131
sS'N'
F0
sS'Q'
F0
sS'P'
F0
sS'S'
F4.1623309053069721e-05
sS'R'
F0
sS'U'
F0
sS'T'
F0.00037460978147762749
sS'W'
F0
sS'V'
F0.060104058272632668
sS'Y'
F0
sS'X'
F0
sS'Z'
F0
ssI19
(dp163
S'-'
F0
sS'A'
F9.3652445369406872e-05
sS'C'
F0.42459937565036421
sS'B'
F0
sS'E'
F0
sS'D'
F0
sS'G'
F0
sS'F'
F0.0033714880332986474
sS'I'
F0
sS'H'
F0
sS'K'
F0
sS'M'
F0.00037460978147762749
sS'L'
F0.015827263267429757
sS'N'
F0
sS'Q'
F0
sS'P'
F0
sS'S'
F0.0087513007284079087
sS'R'
F0
sS'U'
F0
sS'T'
F0.001259105098855359
sS'W'
F1.040582726326743e-05
sS'V'
F1.040582726326743e-05
sS'Y'
F0
sS'X'
F0
sS'Z'
F0
ssI20
(dp164
S'-'
F0
sS'A'
F9.3652445369406872e-05
sS'C'
F0.00037460978147762749
sS'B'
F0
sS'E'
F1.040582726326743e-05
sS'D'
F0
sS'G'
F0.00050988553590010398
sS'F'
F0.032632674297606655
sS'I'
F1.040582726326743e-05
sS'H'
F1.040582726326743e-05
sS'K'
F0
sS'M'
F9.3652445369406872e-05
sS'L'
F9.3652445369406872e-05
sS'N'
F1.040582726326743e-05
sS'Q'
F0.00037460978147762749
sS'P'
F0
sS'S'
F0.00066597294484911553
sS'R'
F1.040582726326743e-05
sS'U'
F0
sS'T'
F4.1623309053069721e-05
sS'W'
F0.39163371488033305
sS'V'
F4.1623309053069721e-05
sS'Y'
F0.0023413111342351716
sS'X'
F0
sS'Z'
F0
ssI21
(dp165
S'-'
F0
sS'A'
F0.029229968782518208
sS'C'
F0.00084287200832466186
sS'B'
F0
sS'E'
F0
sS'D'
F0
sS'G'
F0.0045889698231009373
sS'F'
F0.0030072840790842876
sS'I'
F0.0041623309053069714
sS'H'
F0
sS'K'
F0
sS'M'
F0.0026638917793964621
sS'L'
F0.12591050988553593
sS'N'
F0
sS'Q'
F1.040582726326743e-05
sS'P'
F0
sS'S'
F0.0010405827263267429
sS'R'
F0
sS'U'
F0
sS'T'
F0.01202913631633715
sS'W'
F1.040582726326743e-05
sS'V'
F0.0033714880332986474
sS'Y'
F0
sS'X'
F0
sS'Z'
F0
ssI22
(dp166
S'-'
F0
sS'A'
F1.040582726326743e-05
sS'C'
F0
sS'B'
F0
sS'E'
F0
sS'D'
F0
sS'G'
F0
sS'F'
F4.1623309053069721e-05
sS'I'
F0.00066597294484911553
sS'H'
F0
sS'K'
F0
sS'M'
F0
sS'L'
F0.00016649323621227888
sS'N'
F0
sS'Q'
F0
sS'P'
F0.84521331945889688
sS'S'
F0.00016649323621227888
sS'R'
F0
sS'U'
F0
sS'T'
F1.040582726326743e-05
sS'W'
F0
sS'V'
F0.00016649323621227888
sS'Y'
F1.040582726326743e-05
sS'X'
F0
sS'Z'
F0
ssI23
(dp167
S'-'
F0
sS'A'
F1.040582726326743e-05
sS'C'
F9.3652445369406872e-05
sS'B'
F0
sS'E'
F0.00016649323621227888
sS'D'
F0
sS'G'
F9.3652445369406872e-05
sS'F'
F0.080582726326742973
sS'I'
F0.0023413111342351716
sS'H'
F0.001259105098855359
sS'K'
F0
sS'M'
F9.3652445369406872e-05
sS'L'
F0.0093652445369406864
sS'N'
F0.00084287200832466186
sS'Q'
F0
sS'P'
F0
sS'S'
F0.0010405827263267429
sS'R'
F9.3652445369406872e-05
sS'U'
F0
sS'T'
F1.040582726326743e-05
sS'W'
F1.040582726326743e-05
sS'V'
F0.0010405827263267429
sS'Y'
F0.14489073881373568
sS'X'
F0
sS'Z'
F0
ssI24
(dp168
S'-'
F0
sS'A'
F0.001259105098855359
sS'C'
F9.3652445369406872e-05
sS'B'
F0
sS'E'
F1.040582726326743e-05
sS'D'
F0
sS'G'
F0.00084287200832466186
sS'F'
F0.045327783558792918
sS'I'
F0.00084287200832466186
sS'H'
F0.060104058272632668
sS'K'
F0
sS'M'
F9.3652445369406872e-05
sS'L'
F0.0017585848074921958
sS'N'
F0.019240374609781476
sS'Q'
F0.0014984391259105099
sS'P'
F0
sS'S'
F0.0037565036420395418
sS'R'
F4.1623309053069721e-05
sS'U'
F0
sS'T'
F0.0010405827263267429
sS'W'
F0.00016649323621227888
sS'V'
F0.0017585848074921958
sS'Y'
F0.0026638917793964621
sS'X'
F0
sS'Z'
F0
ssI25
(dp169
S'-'
F0
sS'A'
F0.0041623309053069714
sS'C'
F0.00026014568158168571
sS'B'
F0
sS'E'
F0
sS'D'
F0
sS'G'
F0.00016649323621227888
sS'F'
F0.0075858480749219567
sS'I'
F0.069968782518210204
sS'H'
F1.040582726326743e-05
sS'K'
F0
sS'M'
F0.00026014568158168571
sS'L'
F0.043964620187304897
sS'N'
F0
sS'Q'
F0
sS'P'
F1.040582726326743e-05
sS'S'
F0.00084287200832466186
sS'R'
F0
sS'U'
F0
sS'T'
F0.00084287200832466186
sS'W'
F1.040582726326743e-05
sS'V'
F0.066597294484911543
sS'Y'
F1.040582726326743e-05
sS'X'
F0
sS'Z'
F0
ssI26
(dp170
S'-'
F0
sS'A'
F0.01202913631633715
sS'C'
F0.00066597294484911553
sS'B'
F0
sS'E'
F0
sS'D'
F0.00050988553590010398
sS'G'
F0.00037460978147762749
sS'F'
F0.014245577523413112
sS'I'
F0.0030072840790842876
sS'H'
F0.00066597294484911553
sS'K'
F4.1623309053069721e-05
sS'M'
F0.0017585848074921958
sS'L'
F0.024984391259105093
sS'N'
F9.3652445369406872e-05
sS'Q'
F0.00016649323621227888
sS'P'
F0
sS'S'
F0.0050364203954214358
sS'R'
F0.00050988553590010398
sS'U'
F0
sS'T'
F0.0065036420395421434
sS'W'
F1.040582726326743e-05
sS'V'
F0.028137356919875133
sS'Y'
F0.0023413111342351716
sS'X'
F0
sS'Z'
F0
ssI27
(dp171
S'-'
F0
sS'A'
F0.0030072840790842876
sS'C'
F0.00066597294484911553
sS'B'
F0
sS'E'
F9.3652445369406872e-05
sS'D'
F1.040582726326743e-05
sS'G'
F0.001259105098855359
sS'F'
F0.0033714880332986474
sS'I'
F0.0055046826222684697
sS'H'
F0.0010405827263267429
sS'K'
F0.0010405827263267429
sS'M'
F0.001259105098855359
sS'L'
F0.027065556711758587
sS'N'
F0.010655567117585849
sS'Q'
F0.0026638917793964621
sS'P'
F1.040582726326743e-05
sS'S'
F0.0037565036420395418
sS'R'
F0.010655567117585849
sS'U'
F0
sS'T'
F0.0017585848074921958
sS'W'
F0.00050988553590010398
sS'V'
F0.0041623309053069714
sS'Y'
F0.00050988553590010398
sS'X'
F0
sS'Z'
F0
ssI28
(dp172
S'-'
F0
sS'A'
F0.0014984391259105099
sS'C'
F0.00066597294484911553
sS'B'
F0
sS'E'
F0
sS'D'
F1.040582726326743e-05
sS'G'
F4.1623309053069721e-05
sS'F'
F0.01202913631633715
sS'I'
F0.030343392299687827
sS'H'
F0
sS'K'
F0
sS'M'
F0.0017585848074921958
sS'L'
F0.12821019771071801
sS'N'
F1.040582726326743e-05
sS'Q'
F1.040582726326743e-05
sS'P'
F0.00037460978147762749
sS'S'
F0.00050988553590010398
sS'R'
F0
sS'U'
F0
sS'T'
F0.0026638917793964621
sS'W'
F0
sS'V'
F0.015026014568158167
sS'Y'
F0.00037460978147762749
sS'X'
F0
sS'Z'
F0
ssI29
(dp173
S'-'
F1.040582726326743e-05
sS'A'
F0.0050364203954214358
sS'C'
F9.3652445369406872e-05
sS'B'
F0
sS'E'
F0
sS'D'
F0
sS'G'
F1.040582726326743e-05
sS'F'
F0.001259105098855359
sS'I'
F0.018355879292403749
sS'H'
F4.1623309053069721e-05
sS'K'
F1.040582726326743e-05
sS'M'
F0.0014984391259105099
sS'L'
F0.099937565036420373
sS'N'
F1.040582726326743e-05
sS'Q'
F9.3652445369406872e-05
sS'P'
F0.00037460978147762749
sS'S'
F0.00084287200832466186
sS'R'
F1.040582726326743e-05
sS'U'
F0
sS'T'
F0.00037460978147762749
sS'W'
F0.0030072840790842876
sS'V'
F0.03872008324661811
sS'Y'
F0.0017585848074921958
sS'X'
F0
sS'Z'
F0
sssI7
(dp174
I0
(dp175
S'-'
F0.0014984391259105099
sS'A'
F0.00016649323621227888
sS'C'
F0
sS'B'
F0
sS'E'
F0.0017585848074921958
sS'D'
F0.00050988553590010398
sS'G'
F0.00037460978147762749
sS'F'
F0.024984391259105093
sS'I'
F0.0020395421436004159
sS'H'
F0.001259105098855359
sS'K'
F0.0041623309053069714
sS'M'
F0.00050988553590010398
sS'L'
F0.021071800208116546
sS'N'
F0.0010405827263267429
sS'Q'
F4.1623309053069721e-05
sS'P'
F0
sS'S'
F0.0070343392299687833
sS'R'
F0.00084287200832466186
sS'U'
F0
sS'T'
F0.00084287200832466186
sS'W'
F0.00050988553590010398
sS'V'
F0.0017585848074921958
sS'Y'
F0.022018730489073879
sS'X'
F0
sS'Z'
F0
ssI1
(dp176
S'-'
F0
sS'A'
F0.0020395421436004159
sS'C'
F9.3652445369406872e-05
sS'B'
F0
sS'E'
F0.0026638917793964621
sS'D'
F0.0055046826222684697
sS'G'
F0
sS'F'
F0.001259105098855359
sS'I'
F0.0050364203954214358
sS'H'
F0.0037565036420395418
sS'K'
F0.0017585848074921958
sS'M'
F0.0033714880332986474
sS'L'
F0.01133194588969823
sS'N'
F0.0026638917793964621
sS'Q'
F0.0033714880332986474
sS'P'
F0.0030072840790842876
sS'S'
F0.0037565036420395418
sS'R'
F0.00066597294484911553
sS'U'
F0
sS'T'
F0.0045889698231009373
sS'W'
F0.00026014568158168571
sS'V'
F0.0026638917793964621
sS'Y'
F0.0033714880332986474
sS'X'
F0
sS'Z'
F0
ssI2
(dp177
S'-'
F0
sS'A'
F0.0081581685744016638
sS'C'
F4.1623309053069721e-05
sS'B'
F0
sS'E'
F0
sS'D'
F0
sS'G'
F9.3652445369406872e-05
sS'F'
F0.024984391259105093
sS'I'
F0.03872008324661811
sS'H'
F0
sS'K'
F0
sS'M'
F0.00037460978147762749
sS'L'
F0.026014568158168574
sS'N'
F9.3652445369406872e-05
sS'Q'
F1.040582726326743e-05
sS'P'
F0.00037460978147762749
sS'S'
F9.3652445369406872e-05
sS'R'
F4.1623309053069721e-05
sS'U'
F0
sS'T'
F0.00066597294484911553
sS'W'
F0.00050988553590010398
sS'V'
F0.05545265348595213
sS'Y'
F0.00066597294484911553
sS'X'
F0
sS'Z'
F0
ssI3
(dp178
S'-'
F0
sS'A'
F0.015827263267429757
sS'C'
F0.010655567117585849
sS'B'
F0
sS'E'
F0
sS'D'
F0
sS'G'
F0.0026638917793964621
sS'F'
F0.0081581685744016638
sS'I'
F0.0023413111342351716
sS'H'
F0
sS'K'
F0
sS'M'
F9.3652445369406872e-05
sS'L'
F0.0059937565036420398
sS'N'
F4.1623309053069721e-05
sS'Q'
F0
sS'P'
F0.00037460978147762749
sS'S'
F0.022986472424557751
sS'R'
F0
sS'U'
F0
sS'T'
F0.043964620187304897
sS'W'
F0.00016649323621227888
sS'V'
F0.0059937565036420398
sS'Y'
F0.00026014568158168571
sS'X'
F0
sS'Z'
F0
ssI4
(dp179
S'-'
F0
sS'A'
F0.00050988553590010398
sS'C'
F4.1623309053069721e-05
sS'B'
F0
sS'E'
F0.0075858480749219567
sS'D'
F0.00026014568158168571
sS'G'
F0.00026014568158168571
sS'F'
F0.0030072840790842876
sS'I'
F0.0075858480749219567
sS'H'
F0.0023413111342351716
sS'K'
F0.0010405827263267429
sS'M'
F0.00066597294484911553
sS'L'
F0.033808532778355875
sS'N'
F0.001259105098855359
sS'Q'
F0.0017585848074921958
sS'P'
F1.040582726326743e-05
sS'S'
F0.0014984391259105099
sS'R'
F0.0023413111342351716
sS'U'
F0
sS'T'
F0.010000000000000002
sS'W'
F4.1623309053069721e-05
sS'V'
F0.0127471383975026
sS'Y'
F0.0010405827263267429
sS'X'
F0
sS'Z'
F0
ssI5
(dp180
S'-'
F0
sS'A'
F0.010000000000000002
sS'C'
F0.0093652445369406864
sS'B'
F0
sS'E'
F0
sS'D'
F0
sS'G'
F0.00066597294484911553
sS'F'
F0.0030072840790842876
sS'I'
F0.0045889698231009373
sS'H'
F1.040582726326743e-05
sS'K'
F1.040582726326743e-05
sS'M'
F0.00037460978147762749
sS'L'
F0.024984391259105093
sS'N'
F0.00026014568158168571
sS'Q'
F4.1623309053069721e-05
sS'P'
F0.00037460978147762749
sS'S'
F0.0037565036420395418
sS'R'
F0.00037460978147762749
sS'U'
F0
sS'T'
F0.0017585848074921958
sS'W'
F0.048116545265348601
sS'V'
F0.0055046826222684697
sS'Y'
F0.00016649323621227888
sS'X'
F0
sS'Z'
F0
ssI6
(dp181
S'-'
F0
sS'A'
F0.00037460978147762749
sS'C'
F0.00026014568158168571
sS'B'
F0
sS'E'
F1.040582726326743e-05
sS'D'
F1.040582726326743e-05
sS'G'
F0
sS'F'
F0.015827263267429757
sS'I'
F0.01348595213319459
sS'H'
F0
sS'K'
F0
sS'M'
F0.0010405827263267429
sS'L'
F0.36388137356919881
sS'N'
F0
sS'Q'
F0
sS'P'
F9.3652445369406872e-05
sS'S'
F9.3652445369406872e-05
sS'R'
F0
sS'U'
F0
sS'T'
F0.00016649323621227888
sS'W'
F0
sS'V'
F0.0023413111342351716
sS'Y'
F0
sS'X'
F0
sS'Z'
F0
ssI7
(dp182
S'-'
F0
sS'A'
F0.13287200832466181
sS'C'
F0.00084287200832466186
sS'B'
F0
sS'E'
F0
sS'D'
F0
sS'G'
F0.035005202913631635
sS'F'
F0.001259105098855359
sS'I'
F0.0017585848074921958
sS'H'
F1.040582726326743e-05
sS'K'
F0
sS'M'
F0.00066597294484911553
sS'L'
F0.0010405827263267429
sS'N'
F0
sS'Q'
F1.040582726326743e-05
sS'P'
F0.00016649323621227888
sS'S'
F0.021071800208116546
sS'R'
F9.3652445369406872e-05
sS'U'
F0
sS'T'
F0.0059937565036420398
sS'W'
F0
sS'V'
F0.00037460978147762749
sS'Y'
F0.00016649323621227888
sS'X'
F0
sS'Z'
F0
ssI8
(dp183
S'-'
F0
sS'A'
F0.0026638917793964621
sS'C'
F0.00037460978147762749
sS'B'
F0
sS'E'
F4.1623309053069721e-05
sS'D'
F1.040582726326743e-05
sS'G'
F0.00016649323621227888
sS'F'
F0.022986472424557751
sS'I'
F0.0010405827263267429
sS'H'
F0.00037460978147762749
sS'K'
F0.00066597294484911553
sS'M'
F0.0059937565036420398
sS'L'
F0.0017585848074921958
sS'N'
F0.00037460978147762749
sS'Q'
F0
sS'P'
F0.00084287200832466186
sS'S'
F0.01133194588969823
sS'R'
F0
sS'U'
F0
sS'T'
F0.0026638917793964621
sS'W'
F0.00050988553590010398
sS'V'
F0.00066597294484911553
sS'Y'
F0.091945889698231004
sS'X'
F0
sS'Z'
F0
ssI9
(dp184
S'-'
F0
sS'A'
F0.037460978147762745
sS'C'
F0.001259105098855359
sS'B'
F0
sS'E'
F0
sS'D'
F0
sS'G'
F0.00026014568158168571
sS'F'
F0.0093652445369406864
sS'I'
F0.0041623309053069714
sS'H'
F0
sS'K'
F0
sS'M'
F0.00066597294484911553
sS'L'
F0.063309053069719026
sS'N'
F1.040582726326743e-05
sS'Q'
F0
sS'P'
F0
sS'S'
F0.017492195629552551
sS'R'
F1.040582726326743e-05
sS'U'
F0
sS'T'
F0.0023413111342351716
sS'W'
F0.00016649323621227888
sS'V'
F0.0093652445369406864
sS'Y'
F0.00037460978147762749
sS'X'
F0
sS'Z'
F0
ssI10
(dp185
S'-'
F0
sS'A'
F0.00066597294484911553
sS'C'
F0.00037460978147762749
sS'B'
F0
sS'E'
F1.040582726326743e-05
sS'D'
F0
sS'G'
F1.040582726326743e-05
sS'F'
F0.00037460978147762749
sS'I'
F4.1623309053069721e-05
sS'H'
F0.0065036420395421434
sS'K'
F0.00050988553590010398
sS'M'
F0
sS'L'
F4.1623309053069721e-05
sS'N'
F0.36778355879292401
sS'Q'
F0.00026014568158168571
sS'P'
F9.3652445369406872e-05
sS'S'
F0.01133194588969823
sS'R'
F0.00016649323621227888
sS'U'
F0
sS'T'
F1.040582726326743e-05
sS'W'
F0
sS'V'
F1.040582726326743e-05
sS'Y'
F0.0030072840790842876
sS'X'
F0
sS'Z'
F0
ssI11
(dp186
S'-'
F0
sS'A'
F0.0075858480749219567
sS'C'
F0.014245577523413112
sS'B'
F0
sS'E'
F1.040582726326743e-05
sS'D'
F0
sS'G'
F0.00026014568158168571
sS'F'
F9.3652445369406872e-05
sS'I'
F0.00026014568158168571
sS'H'
F0
sS'K'
F0
sS'M'
F0
sS'L'
F9.3652445369406872e-05
sS'N'
F4.1623309053069721e-05
sS'Q'
F0.00016649323621227888
sS'P'
F0.0041623309053069714
sS'S'
F0.34090530697190424
sS'R'
F1.040582726326743e-05
sS'U'
F0
sS'T'
F0.0030072840790842876
sS'W'
F0
sS'V'
F9.3652445369406872e-05
sS'Y'
F1.040582726326743e-05
sS'X'
F0
sS'Z'
F0
ssI12
(dp187
S'-'
F0
sS'A'
F0.023975026014568159
sS'C'
F0.12591050988553593
sS'B'
F0
sS'E'
F0
sS'D'
F0
sS'G'
F0.001259105098855359
sS'F'
F0.001259105098855359
sS'I'
F0.0030072840790842876
sS'H'
F0
sS'K'
F0
sS'M'
F0.0017585848074921958
sS'L'
F0.0023413111342351716
sS'N'
F0
sS'Q'
F0
sS'P'
F4.1623309053069721e-05
sS'S'
F0.019240374609781476
sS'R'
F0
sS'U'
F0
sS'T'
F0.0020395421436004159
sS'W'
F1.040582726326743e-05
sS'V'
F0.0065036420395421434
sS'Y'
F0
sS'X'
F0
sS'Z'
F0
ssI13
(dp188
S'-'
F0
sS'A'
F0.01348595213319459
sS'C'
F0.0014984391259105099
sS'B'
F0
sS'E'
F0
sS'D'
F0
sS'G'
F0.00084287200832466186
sS'F'
F0.0037565036420395418
sS'I'
F0.021071800208116546
sS'H'
F9.3652445369406872e-05
sS'K'
F0
sS'M'
F0.0023413111342351716
sS'L'
F0.1040582726326743
sS'N'
F0
sS'Q'
F0
sS'P'
F0
sS'S'
F0.00066597294484911553
sS'R'
F0
sS'U'
F0
sS'T'
F0.00026014568158168571
sS'W'
F0
sS'V'
F0.022986472424557751
sS'Y'
F0.001259105098855359
sS'X'
F0
sS'Z'
F0
ssI14
(dp189
S'-'
F0
sS'A'
F0
sS'C'
F0
sS'B'
F0
sS'E'
F0
sS'D'
F0.031477627471383982
sS'G'
F0
sS'F'
F0
sS'I'
F1.040582726326743e-05
sS'H'
F0.0075858480749219567
sS'K'
F0.00016649323621227888
sS'M'
F0
sS'L'
F9.3652445369406872e-05
sS'N'
F0.44587929240374607
sS'Q'
F0
sS'P'
F1.040582726326743e-05
sS'S'
F0.00016649323621227888
sS'R'
F1.040582726326743e-05
sS'U'
F0
sS'T'
F0.00037460978147762749
sS'W'
F0
sS'V'
F1.040582726326743e-05
sS'Y'
F0
sS'X'
F0
sS'Z'
F0
ssI15
(dp190
S'-'
F0
sS'A'
F0.00050988553590010398
sS'C'
F4.1623309053069721e-05
sS'B'
F0
sS'E'
F0
sS'D'
F0
sS'G'
F0
sS'F'
F4.1623309053069721e-05
sS'I'
F0
sS'H'
F0
sS'K'
F0
sS'M'
F0
sS'L'
F4.1623309053069721e-05
sS'N'
F0
sS'Q'
F0
sS'P'
F0.78694068678459939
sS'S'
F0.0030072840790842876
sS'R'
F0
sS'U'
F0
sS'T'
F4.1623309053069721e-05
sS'W'
F0
sS'V'
F9.3652445369406872e-05
sS'Y'
F0
sS'X'
F0
sS'Z'
F0
ssI16
(dp191
S'-'
F0
sS'A'
F0.00016649323621227888
sS'C'
F4.1623309053069721e-05
sS'B'
F0
sS'E'
F0
sS'D'
F0
sS'G'
F1.040582726326743e-05
sS'F'
F0.035005202913631635
sS'I'
F0.089999999999999997
sS'H'
F0
sS'K'
F0
sS'M'
F0.00037460978147762749
sS'L'
F0.03872008324661811
sS'N'
F0
sS'Q'
F1.040582726326743e-05
sS'P'
F1.040582726326743e-05
sS'S'
F4.1623309053069721e-05
sS'R'
F0
sS'U'
F0
sS'T'
F0.00026014568158168571
sS'W'
F0.0010405827263267429
sS'V'
F0.043964620187304897
sS'Y'
F1.040582726326743e-05
sS'X'
F0
sS'Z'
F0
ssI17
(dp192
S'-'
F9.3652445369406872e-05
sS'A'
F0.00050988553590010398
sS'C'
F0.00084287200832466186
sS'B'
F0
sS'E'
F0
sS'D'
F0
sS'G'
F0
sS'F'
F0.00037460978147762749
sS'I'
F0.1924661810613944
sS'H'
F0
sS'K'
F0
sS'M'
F4.1623309053069721e-05
sS'L'
F0.10198751300728406
sS'N'
F0
sS'Q'
F1.040582726326743e-05
sS'P'
F0
sS'S'
F1.040582726326743e-05
sS'R'
F1.040582726326743e-05
sS'U'
F0
sS'T'
F1.040582726326743e-05
sS'W'
F0
sS'V'
F0.019240374609781476
sS'Y'
F1.040582726326743e-05
sS'X'
F0
sS'Z'
F0
ssI18
(dp193
S'-'
F0.00016649323621227888
sS'A'
F1.040582726326743e-05
sS'C'
F0.00016649323621227888
sS'B'
F0
sS'E'
F0
sS'D'
F4.1623309053069721e-05
sS'G'
F0
sS'F'
F0.00066597294484911553
sS'I'
F4.1623309053069721e-05
sS'H'
F1.040582726326743e-05
sS'K'
F0
sS'M'
F1.040582726326743e-05
sS'L'
F0.010655567117585849
sS'N'
F0
sS'Q'
F0
sS'P'
F0
sS'S'
F0
sS'R'
F1.040582726326743e-05
sS'U'
F0
sS'T'
F1.040582726326743e-05
sS'W'
F0
sS'V'
F1.040582726326743e-05
sS'Y'
F0.66081165452653479
sS'X'
F0
sS'Z'
F0
ssI19
(dp194
S'-'
F0.0030072840790842876
sS'A'
F0.042622268470343394
sS'C'
F0.0055046826222684697
sS'B'
F0
sS'E'
F0
sS'D'
F0
sS'G'
F0.0055046826222684697
sS'F'
F0.0065036420395421434
sS'I'
F0.010000000000000002
sS'H'
F1.040582726326743e-05
sS'K'
F0
sS'M'
F0.00016649323621227888
sS'L'
F0.0017585848074921958
sS'N'
F0.0010405827263267429
sS'Q'
F1.040582726326743e-05
sS'P'
F0.0010405827263267429
sS'S'
F0.0023413111342351716
sS'R'
F4.1623309053069721e-05
sS'U'
F0
sS'T'
F0.0055046826222684697
sS'W'
F1.040582726326743e-05
sS'V'
F0.0037565036420395418
sS'Y'
F0.0081581685744016638
sS'X'
F0
sS'Z'
F0
ssI20
(dp195
S'-'
F0.0050364203954214358
sS'A'
F0.00037460978147762749
sS'C'
F0.0017585848074921958
sS'B'
F0
sS'E'
F0
sS'D'
F0
sS'G'
F4.1623309053069721e-05
sS'F'
F0.13053069719042662
sS'I'
F0.0023413111342351716
sS'H'
F1.040582726326743e-05
sS'K'
F0
sS'M'
F0.00050988553590010398
sS'L'
F0.068272632674297604
sS'N'
F0
sS'Q'
F1.040582726326743e-05
sS'P'
F0
sS'S'
F9.3652445369406872e-05
sS'R'
F0.00016649323621227888
sS'U'
F0
sS'T'
F0.00037460978147762749
sS'W'
F0.0020395421436004159
sS'V'
F0.0010405827263267429
sS'Y'
F0.0017585848074921958
sS'X'
F0
sS'Z'
F0
ssI21
(dp196
S'-'
F0.049542143600416241
sS'A'
F0.0017585848074921958
sS'C'
F0.00066597294484911553
sS'B'
F0
sS'E'
F0
sS'D'
F0
sS'G'
F0.001259105098855359
sS'F'
F0.015026014568158167
sS'I'
F0.00066597294484911553
sS'H'
F1.040582726326743e-05
sS'K'
F4.1623309053069721e-05
sS'M'
F0.0023413111342351716
sS'L'
F0.029229968782518208
sS'N'
F4.1623309053069721e-05
sS'Q'
F0
sS'P'
F0
sS'S'
F0.0055046826222684697
sS'R'
F0.0050364203954214358
sS'U'
F0
sS'T'
F0.0014984391259105099
sS'W'
F1.040582726326743e-05
sS'V'
F0.0093652445369406864
sS'Y'
F4.1623309053069721e-05
sS'X'
F0
sS'Z'
F0
sss.